(dp1
S'output'
p2
S"<class 'sqlite3.IntegrityError'> foreign key constraint failed"
p3
sS'layer'
p4
S'D:\\project\\web\\web2py\\applications\\TATSERVER\\controllers/default.py'
p5
sS'code'
p6
S'# -*- coding: utf-8 -*-\n# this file is released under public domain and you can use without limitations\n\n#########################################################################\n## This is a sample controller\n## - index is the default action of any application\n## - user is required for authentication and authorization\n## - download is for downloading files uploaded in the db (does streaming)\n## - api is an example of Hypermedia API support and access control\n#########################################################################\n\ndef index():\n    """\n    example action using the internationalization operator T and flash\n    rendered by views/default/index.html or views/generic.html\n\n    if you need a simple wiki simply replace the two lines below with:\n    return auth.wiki()\n    """\n    response.flash = T("Welcome to web2py!")\n    return dict(message=T(\'Hello World\'))\n\ndef getpersom(value):\n    return\n\ndef make_plan():\n    # a = ["b","aaa","ccc"]\n    #\n    # pj_dict = {"Alto5":{"v3H20":{"ZZ":"x3h2zz00bg00","ZZ":"x3h21230bg00"}},"Alto4":{"vasdH20":{"ZZ":"x3h2zz00bg00","ZZ":"x3h21230bg00"}}}\n    #\n    #\n    # project_form = FORM(TABLE(\n    #     TR(\'project:\', INPUT(_type=\'text\', _name=\'name\',requires=IS_NOT_EMPTY())),\n    #     TR(\'Your email:\', INPUT(_type=\'text\', _name=\'email\',requires=IS_EMAIL())),\n    #     TR(\'Admin\', INPUT(_type=\'checkbox\', _name=\'admin\')),\n    #     TR(\'persos\', SELECT(a, _name=\'sure\',\n    #                         onChange="getpersom(this.value)",align=\'top\',requires=IS_IN_SET([\'yes\', \'no\']))),\n    #     TR(\'persos_m\', SELECT(a, _name=\'persos_m\',hidden=True)),\n    # ))\n    # plan_form = FORM(TABLE(\n    #     TR(\'project:\', INPUT(_type=\'text\', _name=\'name\',requires=IS_NOT_EMPTY())),\n    #     TR(\'Test Type:\', INPUT(_type=\'text\', _name=\'test_type\',requires=IS_NOT_EMPTY())),\n    #     TR(\'TestScript Branch:\', INPUT(_type=\'text\', _name=\'scrip_branch\',requires=IS_NOT_EMPTY())),\n    #     TR(\'TestScript Tag:\', INPUT(_type=\'text\', _name=\'scrip_tag\',requires=IS_NOT_EMPTY())),\n    #     TR(\'tool:\', INPUT(_type=\'text\', _name=\'tool\',requires=IS_EMAIL())),\n    #     TR(\'begin time\', INPUT(__type=\'date\', _name=\'begin_time\',requires=IS_TIME())),\n    #     TR(\'client_name\', SELECT(a, _name=\'sure\',\n    #                         onChange="getpersom(this.value)",align=\'top\',requires=IS_IN_SET([\'yes\', \'no\']))),\n    #     TR(\'\', INPUT(_type=\'submit\', _value=\'SUBMIT\')),\n    # ))\n    # db.tool.update_or_insert(tool_version = 1.0)\n    # plan_form1 = SQLFORM(db.test_plan)\n    # if plan_form1.process().accepted:\n    #     response.flash = \'record inserted\'\n    # return dict(project_form = project_form,plan_form = plan_form1,pj_dict = pj_dict)\n    db.tool.update_or_insert(tool_version = 1.0)\n    plan_form = SQLFORM(db.test_plan)\n    if plan_form.process().accepted:\n        response.flash = \'record inserted\'\n    return dict(plan_form = plan_form)\n\ndef get_report():\n    return "success"\n\ndef display():\n    form = SQLFORM(db.test_plan)\n    return dict(form = form)\n\ndef test():\n    import xml\n    return dict(form = form)\n\ndef show_testplan():\n    return dict()\n\ndef new_client():\n    form = SQLFORM(db.client)\n    if form.accepts(request.post_vars,session):\n        session.flash = \'client created ok\'\n        redirect(URL(\'show_clients\'))\n    Message ="New Client"\n    return dict(form=form,message=Message)\n\ndef delete_client():\n    form = SQLFORM(db.client)\n    if form.accepts(request.post_vars,session):\n        session.flash = \'client created ok\'\n        redirect(URL(\'show_clients\'))\n    Message ="New Client"\n    return dict(form=form,message=Message)\n\ndef show_client_status():\n    plans = []\n    testStatus = {"client_name":"lz","testor_name":"lz","status":"running","plan_list":["111","222222"]}\n    list_client = db(db.client).select()\n    for client in list_client:\n        #RPC Function\n        if testStatus["client_name"]==client.name:\n            # myquery = (db.test_client.client_name == testStatus["client_name"])\n            # myset = db(myquery)\n            # if None != myset:\n            #     myset.update(status=testStatus["status"])\n            #     myset.delete()\n            # else:\n            #     pass\n            plans.append(testStatus["plan_list"])\n            db.test_client.update_or_insert(client_name="lz",testor_name="l1z",status="running",plan_list="111,222222")\n    return dict(form = SQLFORM(db.test_client), list_client = db(db.test_client).select())\n\ndef show_all_testplan():\n    return dict(list_plan= db(db.test_plan).select())\n\ndef show_clients():\n    list_client = db(db.client).select()\n    return dict(list_client =list_client )\n\ndef user():\n    """\n    exposes:\n    http://..../[app]/default/user/login\n    http://..../[app]/default/user/logout\n    http://..../[app]/default/user/register\n    http://..../[app]/default/user/profile\n    http://..../[app]/default/user/retrieve_password\n    http://..../[app]/default/user/change_password\n    http://..../[app]/default/user/manage_users (requires membership in\n    use @auth.requires_login()\n        @auth.requires_membership(\'group name\')\n        @auth.requires_permission(\'read\',\'table name\',record_id)\n    to decorate functions that need access control\n    """\n    return dict(form=auth())\n\n\n@cache.action()\ndef download():\n    """\n    allows downloading of uploaded files\n    http://..../[app]/default/download/[filename]\n    """\n    return response.download(request, db)\n\n\ndef call():\n    """\n    exposes services. for example:\n    http://..../[app]/default/call/jsonrpc\n    decorate with @services.jsonrpc the functions to expose\n    supports xml, json, xmlrpc, jsonrpc, amfrpc, rss, csv\n    """\n    return service()\n\n\n@auth.requires_login() \ndef api():\n    """\n    this is example of API with access control\n    WEB2PY provides Hypermedia API (Collection+JSON) Experimental\n    """\n    from gluon.contrib.hypermedia import Collection\n    rules = {\n        \'<tablename>\': {\'GET\':{},\'POST\':{},\'PUT\':{},\'DELETE\':{}},\n        }\n    return Collection(db).process(request,response,rules)\n\nresponse._vars=response._caller(make_plan)\n'
p7
sS'snapshot'
p8
(dp9
S'exception'
p10
(dp11
S'__module__'
p12
S"'sqlite3'"
p13
sS'__getslice__'
p14
S"<method-wrapper '__getslice__' of IntegrityError object>"
p15
sS'__str__'
p16
S"<method-wrapper '__str__' of IntegrityError object>"
p17
sS'__reduce__'
p18
S'<built-in method __reduce__ of IntegrityError object>'
p19
sS'__dict__'
p20
S'{}'
p21
sS'__sizeof__'
p22
S'<built-in method __sizeof__ of IntegrityError object>'
p23
sS'__weakref__'
p24
S'None'
p25
sS'__init__'
p26
S"<method-wrapper '__init__' of IntegrityError object>"
p27
sS'__setattr__'
p28
S"<method-wrapper '__setattr__' of IntegrityError object>"
p29
sS'__reduce_ex__'
p30
S'<built-in method __reduce_ex__ of IntegrityError object>'
p31
sS'__new__'
p32
S'<built-in method __new__ of type object>'
p33
sS'__format__'
p34
S'<built-in method __format__ of IntegrityError object>'
p35
sS'__class__'
p36
S"<class 'sqlite3.IntegrityError'>"
p37
sS'__doc__'
p38
S'None'
p39
sS'__getitem__'
p40
S"<method-wrapper '__getitem__' of IntegrityError object>"
p41
sS'__setstate__'
p42
S'<built-in method __setstate__ of IntegrityError object>'
p43
sS'__getattribute__'
p44
S"<method-wrapper '__getattribute__' of IntegrityError object>"
p45
sS'args'
p46
S"('foreign key constraint failed',)"
p47
sS'__subclasshook__'
p48
S'<built-in method __subclasshook__ of type object>'
p49
sS'__unicode__'
p50
S'<built-in method __unicode__ of IntegrityError object>'
p51
sS'__delattr__'
p52
S"<method-wrapper '__delattr__' of IntegrityError object>"
p53
sS'__repr__'
p54
S"<method-wrapper '__repr__' of IntegrityError object>"
p55
sS'__hash__'
p56
S"<method-wrapper '__hash__' of IntegrityError object>"
p57
ssS'evalue'
p58
S'foreign key constraint failed'
p59
sS'request'
p60
cgluon.html
XML_unpickle
p61
(S'sPe\x00\x00<div><table><tr><td style="font-weight:bold;vertical-align:top;">ajax</td><td style="vertical-align:top;">:</td><td><div>False</div></td></tr><tr><td style="font-weight:bold;vertical-align:top;">application</td><td style="vertical-align:top;">:</td><td><div>TATSERVER</div></td></tr><tr><td style="font-weight:bold;vertical-align:top;">args</td><td style="vertical-align:top;">:</td><td><div><table></table></div></td></tr><tr><td style="font-weight:bold;vertical-align:top;">cid</td><td style="vertical-align:top;">:</td><td><div>None</div></td></tr><tr><td style="font-weight:bold;vertical-align:top;">client</td><td style="vertical-align:top;">:</td><td><div>127.0.0.1</div></td></tr><tr><td style="font-weight:bold;vertical-align:top;">controller</td><td style="vertical-align:top;">:</td><td><div>default</div></td></tr><tr><td style="font-weight:bold;vertical-align:top;">cookies</td><td style="vertical-align:top;">:</td><td><div><table><tr><td style="font-weight:bold;vertical-align:top;">session_id_admin</td><td style="vertical-align:top;">:</td><td><div>127.0.0.1-1328753e-9bf5-4871-80c5-5930b4d78d62<table><tr><td style="font-weight:bold;vertical-align:top;">comment</td><td style="vertical-align:top;">:</td><td><div></div></td></tr><tr><td style="font-weight:bold;vertical-align:top;">domain</td><td style="vertical-align:top;">:</td><td><div></div></td></tr><tr><td style="font-weight:bold;vertical-align:top;">expires</td><td style="vertical-align:top;">:</td><td><div></div></td></tr><tr><td style="font-weight:bold;vertical-align:top;">httponly</td><td style="vertical-align:top;">:</td><td><div></div></td></tr><tr><td style="font-weight:bold;vertical-align:top;">max-age</td><td style="vertical-align:top;">:</td><td><div></div></td></tr><tr><td style="font-weight:bold;vertical-align:top;">path</td><td style="vertical-align:top;">:</td><td><div></div></td></tr><tr><td style="font-weight:bold;vertical-align:top;">secure</td><td style="vertical-align:top;">:</td><td><div></div></td></tr><tr><td style="font-weight:bold;vertical-align:top;">version</td><td style="vertical-align:top;">:</td><td><div></div></td></tr></table></div></td></tr><tr><td style="font-weight:bold;vertical-align:top;">session_id_tatserver</td><td style="vertical-align:top;">:</td><td><div>127.0.0.1-7e199da8-cecc-40ab-9709-260ab832d39a<table><tr><td style="font-weight:bold;vertical-align:top;">comment</td><td style="vertical-align:top;">:</td><td><div></div></td></tr><tr><td style="font-weight:bold;vertical-align:top;">domain</td><td style="vertical-align:top;">:</td><td><div></div></td></tr><tr><td style="font-weight:bold;vertical-align:top;">expires</td><td style="vertical-align:top;">:</td><td><div></div></td></tr><tr><td style="font-weight:bold;vertical-align:top;">httponly</td><td style="vertical-align:top;">:</td><td><div></div></td></tr><tr><td style="font-weight:bold;vertical-align:top;">max-age</td><td style="vertical-align:top;">:</td><td><div></div></td></tr><tr><td style="font-weight:bold;vertical-align:top;">path</td><td style="vertical-align:top;">:</td><td><div></div></td></tr><tr><td style="font-weight:bold;vertical-align:top;">secure</td><td style="vertical-align:top;">:</td><td><div></div></td></tr><tr><td style="font-weight:bold;vertical-align:top;">version</td><td style="vertical-align:top;">:</td><td><div></div></td></tr></table></div></td></tr><tr><td style="font-weight:bold;vertical-align:top;">session_id_welcome</td><td style="vertical-align:top;">:</td><td><div>127.0.0.1-86abd960-1ba2-4504-a88e-b51beb54b1a8<table><tr><td style="font-weight:bold;vertical-align:top;">comment</td><td style="vertical-align:top;">:</td><td><div></div></td></tr><tr><td style="font-weight:bold;vertical-align:top;">domain</td><td style="vertical-align:top;">:</td><td><div></div></td></tr><tr><td style="font-weight:bold;vertical-align:top;">expires</td><td style="vertical-align:top;">:</td><td><div></div></td></tr><tr><td style="font-weight:bold;vertical-align:top;">httponly</td><td style="vertical-align:top;">:</td><td><div></div></td></tr><tr><td style="font-weight:bold;vertical-align:top;">max-age</td><td style="vertical-align:top;">:</td><td><div></div></td></tr><tr><td style="font-weight:bold;vertical-align:top;">path</td><td style="vertical-align:top;">:</td><td><div></div></td></tr><tr><td style="font-weight:bold;vertical-align:top;">secure</td><td style="vertical-align:top;">:</td><td><div></div></td></tr><tr><td style="font-weight:bold;vertical-align:top;">version</td><td style="vertical-align:top;">:</td><td><div></div></td></tr></table></div></td></tr></table></div></td></tr><tr><td style="font-weight:bold;vertical-align:top;">env</td><td style="vertical-align:top;">:</td><td><div><table><tr><td style="font-weight:bold;vertical-align:top;">CONTENT_LENGTH</td><td style="vertical-align:top;">:</td><td><div>904</div></td></tr><tr><td style="font-weight:bold;vertical-align:top;">CONTENT_TYPE</td><td style="vertical-align:top;">:</td><td><div>multipart/form-data; boundary=----WebKitFormBoundary1fnRUd4z2rTRpclu</div></td></tr><tr><td style="font-weight:bold;vertical-align:top;">HTTP_ACCEPT</td><td style="vertical-align:top;">:</td><td><div>text/html,application/xhtml+xml,application/xml;q=0.9,image/webp,*/*;q=0.8</div></td></tr><tr><td style="font-weight:bold;vertical-align:top;">HTTP_ACCEPT_ENCODING</td><td style="vertical-align:top;">:</td><td><div>gzip,deflate,sdch</div></td></tr><tr><td style="font-weight:bold;vertical-align:top;">HTTP_ACCEPT_LANGUAGE</td><td style="vertical-align:top;">:</td><td><div>zh-CN,zh;q=0.8</div></td></tr><tr><td style="font-weight:bold;vertical-align:top;">HTTP_CACHE_CONTROL</td><td style="vertical-align:top;">:</td><td><div>max-age=0</div></td></tr><tr><td style="font-weight:bold;vertical-align:top;">HTTP_CONNECTION</td><td style="vertical-align:top;">:</td><td><div>keep-alive</div></td></tr><tr><td style="font-weight:bold;vertical-align:top;">HTTP_CONTENT_LENGTH</td><td style="vertical-align:top;">:</td><td><div>904</div></td></tr><tr><td style="font-weight:bold;vertical-align:top;">HTTP_CONTENT_TYPE</td><td style="vertical-align:top;">:</td><td><div>multipart/form-data; boundary=----WebKitFormBoundary1fnRUd4z2rTRpclu</div></td></tr><tr><td style="font-weight:bold;vertical-align:top;">HTTP_COOKIE</td><td style="vertical-align:top;">:</td><td><div>session_id_welcome=127.0.0.1-86abd960-1ba2-4504-a88e-b51beb54b1a8; session_id_admin=127.0.0.1-1328753e-9bf5-4871-80c5-5930b4d78d62; session_id_tatserver=127.0.0.1-7e199da8-cecc-40ab-9709-260ab832d39a</div></td></tr><tr><td style="font-weight:bold;vertical-align:top;">HTTP_HOST</td><td style="vertical-align:top;">:</td><td><div>127.0.0.1:8000</div></td></tr><tr><td style="font-weight:bold;vertical-align:top;">HTTP_ORIGIN</td><td style="vertical-align:top;">:</td><td><div>http://127.0.0.1:8000</div></td></tr><tr><td style="font-weight:bold;vertical-align:top;">HTTP_REFERER</td><td style="vertical-align:top;">:</td><td><div>http://127.0.0.1:8000/TATSERVER/default/make_plan</div></td></tr><tr><td style="font-weight:bold;vertical-align:top;">HTTP_USER_AGENT</td><td style="vertical-align:top;">:</td><td><div>Mozilla/5.0 (Windows NT 6.1) AppleWebKit/537.36 (KHTML, like Gecko) Chrome/31.0.1650.63 Safari/537.36 SE 2.X MetaSr 1.0</div></td></tr><tr><td style="font-weight:bold;vertical-align:top;">PATH_INFO</td><td style="vertical-align:top;">:</td><td><div>/TATSERVER/default/make_plan</div></td></tr><tr><td style="font-weight:bold;vertical-align:top;">QUERY_STRING</td><td style="vertical-align:top;">:</td><td><div></div></td></tr><tr><td style="font-weight:bold;vertical-align:top;">REMOTE_ADDR</td><td style="vertical-align:top;">:</td><td><div>127.0.0.1</div></td></tr><tr><td style="font-weight:bold;vertical-align:top;">REMOTE_PORT</td><td style="vertical-align:top;">:</td><td><div>18061</div></td></tr><tr><td style="font-weight:bold;vertical-align:top;">REQUEST_METHOD</td><td style="vertical-align:top;">:</td><td><div>POST</div></td></tr><tr><td style="font-weight:bold;vertical-align:top;">SCRIPT_NAME</td><td style="vertical-align:top;">:</td><td><div></div></td></tr><tr><td style="font-weight:bold;vertical-align:top;">SERVER_NAME</td><td style="vertical-align:top;">:</td><td><div>50419-0</div></td></tr><tr><td style="font-weight:bold;vertical-align:top;">SERVER_PORT</td><td style="vertical-align:top;">:</td><td><div>8000</div></td></tr><tr><td style="font-weight:bold;vertical-align:top;">SERVER_PROTOCOL</td><td style="vertical-align:top;">:</td><td><div>HTTP/1.1</div></td></tr><tr><td style="font-weight:bold;vertical-align:top;">SERVER_SOFTWARE</td><td style="vertical-align:top;">:</td><td><div>Rocket 1.2.6</div></td></tr><tr><td style="font-weight:bold;vertical-align:top;">app_folders</td><td style="vertical-align:top;">:</td><td><div>set([&#x27;D:\\\\project\\\\web\\\\web2py\\\\applications\\\\welcome\\\\&#x27;, &#x27;D:\\\\project\\\\web\\\\web2py\\\\applications\\\\TATSERVER\\\\&#x27;, &#x27;D:\\\\project\\\\web\\\\web2py\\\\applications\\\\examples\\\\&#x27;, &#x27;D:\\\\project\\\\web\\\\web2py\\\\applications\\\\tatserver\\\\&#x27;, &#x27;D:\\\\project\\\\web\\\\web2py\\\\applications\\\\admin\\\\&#x27;])</div></td></tr><tr><td style="font-weight:bold;vertical-align:top;">applications_parent</td><td style="vertical-align:top;">:</td><td><div>D:\\project\\web\\web2py</div></td></tr><tr><td style="font-weight:bold;vertical-align:top;">cmd_args</td><td style="vertical-align:top;">:</td><td><div><table></table></div></td></tr><tr><td style="font-weight:bold;vertical-align:top;">cmd_options</td><td style="vertical-align:top;">:</td><td><div>&lt;Values at 0x2761648: {&#x27;verbose&#x27;: False, &#x27;ip&#x27;: &#x27;127.0.0.1&#x27;, &#x27;debuglevel&#x27;: 30, &#x27;with_scheduler&#x27;: False, &#x27;ips&#x27;: [&#x27;fe80::c552:3240:c7e2:7bbe%13&#x27;, &#x27;172.16.44.222&#x27;], &#x27;shutdown_timeout&#x27;: 5, &#x27;taskbar&#x27;: False, &#x27;with_coverage&#x27;: False, &#x27;scheduler_groups&#x27;: None, &#x27;port&#x27;: 8000, &#x27;maxthreads&#x27;: None, &#x27;softcron&#x27;: False, &#x27;server_name&#x27;: &#x27;50419-0&#x27;, &#x27;bpython&#x27;: False, &#x27;nogui&#x27;: False, &#x27;pid_filename&#x27;: &#x27;httpserver.pid&#x27;, &#x27;extcron&#x27;: False, &#x27;runcron&#x27;: False, &#x27;run_system_tests&#x27;: False, &#x27;test&#x27;: None, &#x27;folder&#x27;: &#x27;D:\\\\project\\\\web\\\\web2py&#x27;, &#x27;config&#x27;: &#x27;&#x27;, &#x27;minthreads&#x27;: None, &#x27;shell&#x27;: None, &#x27;run&#x27;: &#x27;&#x27;, &#x27;log_filename&#x27;: &#x27;httpserver.log&#x27;, &#x27;profiler_dir&#x27;: None, &#x27;args&#x27;: [&#x27;&#x27;], &#x27;socket_timeout&#x27;: 5, &#x27;ssl_ca_certificate&#x27;: None, &#x27;scheduler&#x27;: None, &#x27;interfaces&#x27;: None, &#x27;ssl_private_key&#x27;: &#x27;&#x27;, &#x27;gae&#x27;: None, &#x27;password&#x27;: &#x27;&lt;ask&gt;&#x27;, &#x27;request_queue_size&#x27;: 5, &#x27;ssl_certificate&#x27;: &#x27;&#x27;, &#x27;cronjob&#x27;: False, &#x27;numthreads&#x27;: None, &#x27;quiet&#x27;: False, &#x27;import_models&#x27;: False, &#x27;timeout&#x27;: 10, &#x27;plain&#x27;: False, &#x27;nobanner&#x27;: False}&gt;</div></td></tr><tr><td style="font-weight:bold;vertical-align:top;">content_length</td><td style="vertical-align:top;">:</td><td><div>904</div></td></tr><tr><td style="font-weight:bold;vertical-align:top;">content_type</td><td style="vertical-align:top;">:</td><td><div>multipart/form-data; boundary=----WebKitFormBoundary1fnRUd4z2rTRpclu</div></td></tr><tr><td style="font-weight:bold;vertical-align:top;">db_sessions</td><td style="vertical-align:top;">:</td><td><div>set([])</div></td></tr><tr><td style="font-weight:bold;vertical-align:top;">debugging</td><td style="vertical-align:top;">:</td><td><div>False</div></td></tr><tr><td style="font-weight:bold;vertical-align:top;">gluon_parent</td><td style="vertical-align:top;">:</td><td><div>D:\\project\\web\\web2py</div></td></tr><tr><td style="font-weight:bold;vertical-align:top;">http_accept</td><td style="vertical-align:top;">:</td><td><div>text/html,application/xhtml+xml,application/xml;q=0.9,image/webp,*/*;q=0.8</div></td></tr><tr><td style="font-weight:bold;vertical-align:top;">http_accept_encoding</td><td style="vertical-align:top;">:</td><td><div>gzip,deflate,sdch</div></td></tr><tr><td style="font-weight:bold;vertical-align:top;">http_accept_language</td><td style="vertical-align:top;">:</td><td><div>zh-CN,zh;q=0.8</div></td></tr><tr><td style="font-weight:bold;vertical-align:top;">http_cache_control</td><td style="vertical-align:top;">:</td><td><div>max-age=0</div></td></tr><tr><td style="font-weight:bold;vertical-align:top;">http_connection</td><td style="vertical-align:top;">:</td><td><div>keep-alive</div></td></tr><tr><td style="font-weight:bold;vertical-align:top;">http_content_length</td><td style="vertical-align:top;">:</td><td><div>904</div></td></tr><tr><td style="font-weight:bold;vertical-align:top;">http_content_type</td><td style="vertical-align:top;">:</td><td><div>multipart/form-data; boundary=----WebKitFormBoundary1fnRUd4z2rTRpclu</div></td></tr><tr><td style="font-weight:bold;vertical-align:top;">http_cookie</td><td style="vertical-align:top;">:</td><td><div>session_id_welcome=127.0.0.1-86abd960-1ba2-4504-a88e-b51beb54b1a8; session_id_admin=127.0.0.1-1328753e-9bf5-4871-80c5-5930b4d78d62; session_id_tatserver=127.0.0.1-7e199da8-cecc-40ab-9709-260ab832d39a</div></td></tr><tr><td style="font-weight:bold;vertical-align:top;">http_host</td><td style="vertical-align:top;">:</td><td><div>127.0.0.1:8000</div></td></tr><tr><td style="font-weight:bold;vertical-align:top;">http_origin</td><td style="vertical-align:top;">:</td><td><div>http://127.0.0.1:8000</div></td></tr><tr><td style="font-weight:bold;vertical-align:top;">http_referer</td><td style="vertical-align:top;">:</td><td><div>http://127.0.0.1:8000/TATSERVER/default/make_plan</div></td></tr><tr><td style="font-weight:bold;vertical-align:top;">http_user_agent</td><td style="vertical-align:top;">:</td><td><div>Mozilla/5.0 (Windows NT 6.1) AppleWebKit/537.36 (KHTML, like Gecko) Chrome/31.0.1650.63 Safari/537.36 SE 2.X MetaSr 1.0</div></td></tr><tr><td style="font-weight:bold;vertical-align:top;">is_jython</td><td style="vertical-align:top;">:</td><td><div>False</div></td></tr><tr><td style="font-weight:bold;vertical-align:top;">is_pypy</td><td style="vertical-align:top;">:</td><td><div>False</div></td></tr><tr><td style="font-weight:bold;vertical-align:top;">is_source</td><td style="vertical-align:top;">:</td><td><div>True</div></td></tr><tr><td style="font-weight:bold;vertical-align:top;">local_hosts</td><td style="vertical-align:top;">:</td><td><div><table><tr><td><div>50419-0.sagemwireless</div></td></tr><tr><td><div>::ffff:127.0.0.1</div></td></tr><tr><td><div>::1</div></td></tr><tr><td><div>50419-0</div></td></tr><tr><td><div>fe80::c552:3240:c7e2:7bbe%13</div></td></tr><tr><td><div>172.16.44.222</div></td></tr><tr><td><div>127.0.0.1</div></td></tr></table></div></td></tr><tr><td style="font-weight:bold;vertical-align:top;">path_info</td><td style="vertical-align:top;">:</td><td><div>/TATSERVER/default/make_plan</div></td></tr><tr><td style="font-weight:bold;vertical-align:top;">query_string</td><td style="vertical-align:top;">:</td><td><div></div></td></tr><tr><td style="font-weight:bold;vertical-align:top;">remote_addr</td><td style="vertical-align:top;">:</td><td><div>127.0.0.1</div></td></tr><tr><td style="font-weight:bold;vertical-align:top;">remote_port</td><td style="vertical-align:top;">:</td><td><div>18061</div></td></tr><tr><td style="font-weight:bold;vertical-align:top;">request_method</td><td style="vertical-align:top;">:</td><td><div>POST</div></td></tr><tr><td style="font-weight:bold;vertical-align:top;">request_uri</td><td style="vertical-align:top;">:</td><td><div>/TATSERVER/default/make_plan</div></td></tr><tr><td style="font-weight:bold;vertical-align:top;">script_name</td><td style="vertical-align:top;">:</td><td><div></div></td></tr><tr><td style="font-weight:bold;vertical-align:top;">server_name</td><td style="vertical-align:top;">:</td><td><div>50419-0</div></td></tr><tr><td style="font-weight:bold;vertical-align:top;">server_port</td><td style="vertical-align:top;">:</td><td><div>8000</div></td></tr><tr><td style="font-weight:bold;vertical-align:top;">server_protocol</td><td style="vertical-align:top;">:</td><td><div>HTTP/1.1</div></td></tr><tr><td style="font-weight:bold;vertical-align:top;">server_software</td><td style="vertical-align:top;">:</td><td><div>Rocket 1.2.6</div></td></tr><tr><td style="font-weight:bold;vertical-align:top;">web2py_path</td><td style="vertical-align:top;">:</td><td><div>D:\\project\\web\\web2py</div></td></tr><tr><td style="font-weight:bold;vertical-align:top;">web2py_version</td><td style="vertical-align:top;">:</td><td><div>2.9.11-stable+timestamp.2014.09.15.23.35.11</div></td></tr><tr><td style="font-weight:bold;vertical-align:top;">wsgi.errors</td><td style="vertical-align:top;">:</td><td><div>&lt;open file &#x27;&lt;stderr&gt;&#x27;, mode &#x27;w&#x27; at 0x0161D0D0&gt;</div></td></tr><tr><td style="font-weight:bold;vertical-align:top;">wsgi.file_wrapper</td><td style="vertical-align:top;">:</td><td><div>&lt;class wsgiref.util.FileWrapper at 0x02B8BAE8&gt;</div></td></tr><tr><td style="font-weight:bold;vertical-align:top;">wsgi.input</td><td style="vertical-align:top;">:</td><td><div>&lt;socket._fileobject object at 0x0CBEBB70&gt;</div></td></tr><tr><td style="font-weight:bold;vertical-align:top;">wsgi.multiprocess</td><td style="vertical-align:top;">:</td><td><div>False</div></td></tr><tr><td style="font-weight:bold;vertical-align:top;">wsgi.multithread</td><td style="vertical-align:top;">:</td><td><div>True</div></td></tr><tr><td style="font-weight:bold;vertical-align:top;">wsgi.run_once</td><td style="vertical-align:top;">:</td><td><div>False</div></td></tr><tr><td style="font-weight:bold;vertical-align:top;">wsgi.url_scheme</td><td style="vertical-align:top;">:</td><td><div>http</div></td></tr><tr><td style="font-weight:bold;vertical-align:top;">wsgi.version</td><td style="vertical-align:top;">:</td><td><div><table><tr><td><div>1</div></td></tr><tr><td><div>0</div></td></tr></table></div></td></tr><tr><td style="font-weight:bold;vertical-align:top;">wsgi_errors</td><td style="vertical-align:top;">:</td><td><div>&lt;open file &#x27;&lt;stderr&gt;&#x27;, mode &#x27;w&#x27; at 0x0161D0D0&gt;</div></td></tr><tr><td style="font-weight:bold;vertical-align:top;">wsgi_file_wrapper</td><td style="vertical-align:top;">:</td><td><div>&lt;class wsgiref.util.FileWrapper at 0x02B8BAE8&gt;</div></td></tr><tr><td style="font-weight:bold;vertical-align:top;">wsgi_input</td><td style="vertical-align:top;">:</td><td><div>&lt;socket._fileobject object at 0x0CBEBB70&gt;</div></td></tr><tr><td style="font-weight:bold;vertical-align:top;">wsgi_multiprocess</td><td style="vertical-align:top;">:</td><td><div>False</div></td></tr><tr><td style="font-weight:bold;vertical-align:top;">wsgi_multithread</td><td style="vertical-align:top;">:</td><td><div>True</div></td></tr><tr><td style="font-weight:bold;vertical-align:top;">wsgi_run_once</td><td style="vertical-align:top;">:</td><td><div>False</div></td></tr><tr><td style="font-weight:bold;vertical-align:top;">wsgi_url_scheme</td><td style="vertical-align:top;">:</td><td><div>http</div></td></tr><tr><td style="font-weight:bold;vertical-align:top;">wsgi_version</td><td style="vertical-align:top;">:</td><td><div><table><tr><td><div>1</div></td></tr><tr><td><div>0</div></td></tr></table></div></td></tr></table></div></td></tr><tr><td style="font-weight:bold;vertical-align:top;">extension</td><td style="vertical-align:top;">:</td><td><div>html</div></td></tr><tr><td style="font-weight:bold;vertical-align:top;">folder</td><td style="vertical-align:top;">:</td><td><div>D:\\project\\web\\web2py\\applications\\TATSERVER\\</div></td></tr><tr><td style="font-weight:bold;vertical-align:top;">function</td><td style="vertical-align:top;">:</td><td><div>make_plan</div></td></tr><tr><td style="font-weight:bold;vertical-align:top;">global_settings</td><td style="vertical-align:top;">:</td><td><div><table><tr><td style="font-weight:bold;vertical-align:top;">app_folders</td><td style="vertical-align:top;">:</td><td><div>set([&#x27;D:\\\\project\\\\web\\\\web2py\\\\applications\\\\welcome\\\\&#x27;, &#x27;D:\\\\project\\\\web\\\\web2py\\\\applications\\\\TATSERVER\\\\&#x27;, &#x27;D:\\\\project\\\\web\\\\web2py\\\\applications\\\\examples\\\\&#x27;, &#x27;D:\\\\project\\\\web\\\\web2py\\\\applications\\\\tatserver\\\\&#x27;, &#x27;D:\\\\project\\\\web\\\\web2py\\\\applications\\\\admin\\\\&#x27;])</div></td></tr><tr><td style="font-weight:bold;vertical-align:top;">applications_parent</td><td style="vertical-align:top;">:</td><td><div>D:\\project\\web\\web2py</div></td></tr><tr><td style="font-weight:bold;vertical-align:top;">cmd_args</td><td style="vertical-align:top;">:</td><td><div><table></table></div></td></tr><tr><td style="font-weight:bold;vertical-align:top;">cmd_options</td><td style="vertical-align:top;">:</td><td><div>&lt;Values at 0x2761648: {&#x27;verbose&#x27;: False, &#x27;ip&#x27;: &#x27;127.0.0.1&#x27;, &#x27;debuglevel&#x27;: 30, &#x27;with_scheduler&#x27;: False, &#x27;ips&#x27;: [&#x27;fe80::c552:3240:c7e2:7bbe%13&#x27;, &#x27;172.16.44.222&#x27;], &#x27;shutdown_timeout&#x27;: 5, &#x27;taskbar&#x27;: False, &#x27;with_coverage&#x27;: False, &#x27;scheduler_groups&#x27;: None, &#x27;port&#x27;: 8000, &#x27;maxthreads&#x27;: None, &#x27;softcron&#x27;: False, &#x27;server_name&#x27;: &#x27;50419-0&#x27;, &#x27;bpython&#x27;: False, &#x27;nogui&#x27;: False, &#x27;pid_filename&#x27;: &#x27;httpserver.pid&#x27;, &#x27;extcron&#x27;: False, &#x27;runcron&#x27;: False, &#x27;run_system_tests&#x27;: False, &#x27;test&#x27;: None, &#x27;folder&#x27;: &#x27;D:\\\\project\\\\web\\\\web2py&#x27;, &#x27;config&#x27;: &#x27;&#x27;, &#x27;minthreads&#x27;: None, &#x27;shell&#x27;: None, &#x27;run&#x27;: &#x27;&#x27;, &#x27;log_filename&#x27;: &#x27;httpserver.log&#x27;, &#x27;profiler_dir&#x27;: None, &#x27;args&#x27;: [&#x27;&#x27;], &#x27;socket_timeout&#x27;: 5, &#x27;ssl_ca_certificate&#x27;: None, &#x27;scheduler&#x27;: None, &#x27;interfaces&#x27;: None, &#x27;ssl_private_key&#x27;: &#x27;&#x27;, &#x27;gae&#x27;: None, &#x27;password&#x27;: &#x27;&lt;ask&gt;&#x27;, &#x27;request_queue_size&#x27;: 5, &#x27;ssl_certificate&#x27;: &#x27;&#x27;, &#x27;cronjob&#x27;: False, &#x27;numthreads&#x27;: None, &#x27;quiet&#x27;: False, &#x27;import_models&#x27;: False, &#x27;timeout&#x27;: 10, &#x27;plain&#x27;: False, &#x27;nobanner&#x27;: False}&gt;</div></td></tr><tr><td style="font-weight:bold;vertical-align:top;">db_sessions</td><td style="vertical-align:top;">:</td><td><div>set([])</div></td></tr><tr><td style="font-weight:bold;vertical-align:top;">debugging</td><td style="vertical-align:top;">:</td><td><div>False</div></td></tr><tr><td style="font-weight:bold;vertical-align:top;">gluon_parent</td><td style="vertical-align:top;">:</td><td><div>D:\\project\\web\\web2py</div></td></tr><tr><td style="font-weight:bold;vertical-align:top;">is_jython</td><td style="vertical-align:top;">:</td><td><div>False</div></td></tr><tr><td style="font-weight:bold;vertical-align:top;">is_pypy</td><td style="vertical-align:top;">:</td><td><div>False</div></td></tr><tr><td style="font-weight:bold;vertical-align:top;">is_source</td><td style="vertical-align:top;">:</td><td><div>True</div></td></tr><tr><td style="font-weight:bold;vertical-align:top;">local_hosts</td><td style="vertical-align:top;">:</td><td><div><table><tr><td><div>50419-0.sagemwireless</div></td></tr><tr><td><div>::ffff:127.0.0.1</div></td></tr><tr><td><div>::1</div></td></tr><tr><td><div>50419-0</div></td></tr><tr><td><div>fe80::c552:3240:c7e2:7bbe%13</div></td></tr><tr><td><div>172.16.44.222</div></td></tr><tr><td><div>127.0.0.1</div></td></tr></table></div></td></tr><tr><td style="font-weight:bold;vertical-align:top;">web2py_version</td><td style="vertical-align:top;">:</td><td><div>2.9.11-stable+timestamp.2014.09.15.23.35.11</div></td></tr></table></div></td></tr><tr><td style="font-weight:bold;vertical-align:top;">is_https</td><td style="vertical-align:top;">:</td><td><div>False</div></td></tr><tr><td style="font-weight:bold;vertical-align:top;">is_local</td><td style="vertical-align:top;">:</td><td><div>True</div></td></tr><tr><td style="font-weight:bold;vertical-align:top;">is_restful</td><td style="vertical-align:top;">:</td><td><div>False</div></td></tr><tr><td style="font-weight:bold;vertical-align:top;">is_sheduler</td><td style="vertical-align:top;">:</td><td><div>None</div></td></tr><tr><td style="font-weight:bold;vertical-align:top;">is_shell</td><td style="vertical-align:top;">:</td><td><div>None</div></td></tr><tr><td style="font-weight:bold;vertical-align:top;">now</td><td style="vertical-align:top;">:</td><td><div>datetime.datetime(2014, 10, 17, 16, 7, 51, 793000)</div></td></tr><tr><td style="font-weight:bold;vertical-align:top;">raw_args</td><td style="vertical-align:top;">:</td><td><div></div></td></tr><tr><td style="font-weight:bold;vertical-align:top;">raw_extension</td><td style="vertical-align:top;">:</td><td><div>None</div></td></tr><tr><td style="font-weight:bold;vertical-align:top;">url</td><td style="vertical-align:top;">:</td><td><div>/TATSERVER/default/make_plan</div></td></tr><tr><td style="font-weight:bold;vertical-align:top;">utcnow</td><td style="vertical-align:top;">:</td><td><div>datetime.datetime(2014, 10, 17, 8, 7, 51, 793000)</div></td></tr><tr><td style="font-weight:bold;vertical-align:top;">uuid</td><td style="vertical-align:top;">:</td><td><div>TATSERVER/127.0.0.1.2014-10-17.16-07-51.a923011c-ba67-47ad-b507-183bb1978715</div></td></tr><tr><td style="font-weight:bold;vertical-align:top;">wsgi</td><td style="vertical-align:top;">:</td><td><div>&lt;gluon.main.LazyWSGI object at 0x03813B90&gt;</div></td></tr></table></div>'
tRp62
sS'frames'
p63
(lp64
(dp65
S'file'
p66
S'D:\\project\\web\\web2py\\gluon\\restricted.py'
p67
sS'dump'
p68
(dp69
S'environment'
p70
S"{'A': <class 'gluon.html.A'>, 'ANY_OF': <class 'gluon.validators.ANY_OF'>, 'ASSIGNJS': <function ASSIGNJS>, 'Auth': <class 'gluon.tools.Auth'>, 'B': <class 'gluon.html.B'>, 'BEAUTIFY': <class 'gluon.html.BEAUTIFY'>, 'BODY': <class 'gluon.html.BODY'>, 'BR': <class 'gluon.html.BR'>, 'BUTTON': <class 'gluon.html.BUTTON'>, 'CAT': <class 'gluon.html.CAT'>, ...}"
p71
sS'ccode'
p72
S'<code object <module> at 038A7A40, file "D:\\proj...tions\\TATSERVER\\controllers/default.py", line 12>'
p73
ssS'lnum'
p74
I224
sS'lines'
p75
(dp76
I224
S'        exec ccode in environment'
p77
sI225
S'    except HTTP:'
p78
sI226
S'        raise'
p79
sI227
S'    except RestrictedError:'
p80
sI228
S'        # do not encapsulate (obfuscate) the original RestrictedError'
p81
sI219
S'    try:'
p82
sI220
S'        if isinstance(code, types.CodeType):'
p83
sI221
S'            ccode = code'
p84
sI222
S'        else:'
p85
sI223
S'            ccode = compile2(code, layer)'
p86
ssS'call'
p87
S"(code='# -*- coding: utf-8 -*-\\n# this file is released ...les)\\n\\nresponse._vars=response._caller(make_plan)\\n', environment={'A': <class 'gluon.html.A'>, 'ANY_OF': <class 'gluon.validators.ANY_OF'>, 'ASSIGNJS': <function ASSIGNJS>, 'Auth': <class 'gluon.tools.Auth'>, 'B': <class 'gluon.html.B'>, 'BEAUTIFY': <class 'gluon.html.BEAUTIFY'>, 'BODY': <class 'gluon.html.BODY'>, 'BR': <class 'gluon.html.BR'>, 'BUTTON': <class 'gluon.html.BUTTON'>, 'CAT': <class 'gluon.html.CAT'>, ...}, layer=r'D:\\project\\web\\web2py\\applications\\TATSERVER\\controllers/default.py')"
p88
sS'func'
p89
S'restricted'
p90
sa(dp91
g66
S'D:\\project\\web\\web2py\\applications\\TATSERVER\\controllers\\default.py'
p92
sg68
(dp93
sg74
I166
sg75
(dp94
I160
S'    from gluon.contrib.hypermedia import Collection'
p95
sI161
S'    rules = {'
p96
sI162
S"        '<tablename>': {'GET':{},'POST':{},'PUT':{},'DELETE':{}},"
p97
sI163
S'        }'
p98
sI164
S'    return Collection(db).process(request,response,rules)'
p99
sI155
S'def api():'
p100
sI156
S'    """'
p101
sI157
S'    this is example of API with access control'
p102
sI158
S'    WEB2PY provides Hypermedia API (Collection+JSON) Experimental'
p103
sI159
S'    """'
p104
ssg87
S'()'
p105
sg89
S'<module>'
p106
sa(dp107
g66
S'D:\\project\\web\\web2py\\gluon\\globals.py'
p108
sg68
(dp109
S'self'
p110
S'undefined'
p111
sS'f'
S'<function make_plan>'
p112
ssg74
I392
sg75
(dp113
I387
S"        self.flash = ''            # used by the default view layout"
p114
sI388
S'        self.meta = Storage()      # used by web2py_ajax.html'
p115
sI389
S'        self.menu = []             # used by the default view layout'
p116
sI390
S'        self.files = []            # used by web2py_ajax.html'
p117
sI391
S'        self._vars = None'
p118
sI392
S'        self._caller = lambda f: f()'
p119
sI393
S'        self._view_environment = None'
p120
sI394
S'        self._custom_commit = None'
p121
sI395
S'        self._custom_rollback = None'
p122
sI396
S"        self.generic_patterns = ['*']"
p123
ssg87
S'(f=<function make_plan>)'
p124
sg89
S'<lambda>'
p125
sa(dp126
g66
S'D:\\project\\web\\web2py\\applications\\TATSERVER\\controllers\\default.py'
p127
sg68
(dp128
S'global display'
p129
S'<function display>'
p130
ssg74
I58
sg75
(dp131
I53
S'    # if plan_form1.process().accepted:'
p132
sI54
S"    #     response.flash = 'record inserted'"
p133
sI55
S'    # return dict(project_form = project_form,plan_form = plan_form1,pj_dict = pj_dict)'
p134
sI56
S'    db.tool.update_or_insert(tool_version = 1.0)'
p135
sI57
S'    plan_form = SQLFORM(db.test_plan)'
p136
sI58
S'    if plan_form.process().accepted:'
p137
sI59
S"        response.flash = 'record inserted'"
p138
sI60
S'    return dict(plan_form = plan_form)'
p139
sI61
S''
sI62
S'def get_report():'
p140
ssg87
S'()'
p141
sg89
S'make_plan'
p142
sa(dp143
g66
S'D:\\project\\web\\web2py\\gluon\\html.py'
p144
sg68
(dp145
S'self'
p146
S'<gluon.sqlhtml.SQLFORM object>'
p147
sS'self.validate'
p148
S'<bound method SQLFORM.validate of <gluon.sqlhtml.SQLFORM object>>'
p149
sS'kwargs'
p150
S"{'dbio': True}"
p151
ssg74
I2303
sg75
(dp152
I2304
S'        return self'
p153
sI2305
S''
sI2306
S'    REDIRECT_JS = "window.location=\'%s\';return false"'
p154
sI2307
S''
sI2298
S''
sI2299
S''
sI2300
S'        """'
p155
sI2301
S"        kwargs['dbio'] = kwargs.get('dbio', True)"
p156
sI2302
S'                                    # necessary for SQLHTML forms'
p157
sI2303
S'        self.validate(**kwargs)'
p158
ssg87
S"(self=<gluon.sqlhtml.SQLFORM object>, **kwargs={'dbio': True})"
p159
sg89
S'process'
p160
sa(dp161
g66
S'D:\\project\\web\\web2py\\gluon\\html.py'
p162
sg68
(dp163
S'self'
p164
S'<gluon.sqlhtml.SQLFORM object>'
p165
sS'self.accepts'
p166
S'<bound method SQLFORM.accepts of <gluon.sqlhtml.SQLFORM object>>'
p167
sS'kwargs'
p168
S"{'dbio': True, 'request_vars': <Storage {'client_name': '3', 'Tool': '1', 'Test...': 'sdfsfsdfs', '_formname': 'test_plan/create'}>, 'session': <Storage {'_formkey[test_client/create]': ['f881...87c9f', 'd78c75a6-b6d1-4be3-b103-36966377c254']}>}"
p169
ssg74
I2240
sg75
(dp170
I2240
S'        if self.accepts(**kwargs):'
p171
sI2241
S"            if onsuccess == 'flash':"
p172
sI2242
S'                if next:'
p173
sI2243
S'                    current.session.flash = message_onsuccess'
p174
sI2244
S'                else:'
p175
sI2235
S"        for key in ('message_onsuccess', 'message_onfailure', 'onsuccess',"
p176
sI2236
S"                    'onfailure', 'next', 'message_onchange', 'onchange'):"
p177
sI2237
S'            if key in kwargs:'
p178
sI2238
S'                del kwargs[key]'
p179
sI2239
S''
ssg87
S"(self=<gluon.sqlhtml.SQLFORM object>, **kwargs={'dbio': True, 'request_vars': <Storage {'client_name': '3', 'Tool': '1', 'Test...': 'sdfsfsdfs', '_formname': 'test_plan/create'}>, 'session': <Storage {'_formkey[test_client/create]': ['f881...87c9f', 'd78c75a6-b6d1-4be3-b103-36966377c254']}>})"
p180
sg89
S'validate'
p181
sa(dp182
g66
S'D:\\project\\web\\web2py\\gluon\\sqlhtml.py'
p183
sg68
(dp184
S'self.vars.id'
p185
S'None'
p186
sS'fields'
p187
S"{'TestScript_Branch': '', 'TestScript_Tag': '', 'Tool': 1, 'begin_time': datetime.datetime(2014, 10, 17, 16, 7, 48), 'client_name': 3, 'plan_name': 'sdfsfsdfs'}"
p188
sS'self'
p189
S'<gluon.sqlhtml.SQLFORM object>'
p190
sS'self.vars'
p191
S"<Storage {'Tool': '1', 'TestScript_Tag': '', 'Te...), 'plan_name': 'sdfsfsdfs', 'client_name': '3'}>"
p192
sS'self.table.insert'
p193
S'<bound method Table.insert of <Table test_plan (...nch,TestScript_Tag,Tool,client_name,begin_time)>>'
p194
sS'self.table'
p195
S'<Table test_plan (id,plan_name,TestScript_Branch,TestScript_Tag,Tool,client_name,begin_time)>'
p196
ssg74
I1671
sg75
(dp197
I1666
S'                    self.vars.id = self.record[self.id_field_name]'
p198
sI1667
S'                    if fields:'
p199
sI1668
S'                        self.table._db(self.table._id == self.record['
p200
sI1669
S'                                       self.id_field_name]).update(**fields)'
p201
sI1670
S'                else:'
p202
sI1671
S'                    self.vars.id = self.table.insert(**fields)'
p203
sI1672
S'        self.accepted = ret'
p204
sI1673
S'        return ret'
p205
sI1674
S''
sI1675
S'    AUTOTYPES = {'
p206
ssg87
S"(self=<gluon.sqlhtml.SQLFORM object>, request_vars=<Storage {'client_name': '3', 'Tool': '1', 'Test...': 'sdfsfsdfs', '_formname': 'test_plan/create'}>, session=<Storage {'_formkey[test_client/create]': ['f881...87c9f', 'd78c75a6-b6d1-4be3-b103-36966377c254']}>, formname='test_plan/create', keepvalues=False, onvalidation=None, dbio=True, hideerror=False, detect_record_change=False, **kwargs={})"
p207
sg89
S'accepts'
p208
sa(dp209
g66
S'D:\\project\\web\\web2py\\gluon\\dal.py'
p210
sg68
(dp211
S'self._listify'
p212
S'<bound method Table._listify of <Table test_plan...nch,TestScript_Tag,Tool,client_name,begin_time)>>'
p213
sS'fields'
p214
S"{'TestScript_Branch': '', 'TestScript_Tag': '', 'Tool': 1, 'begin_time': datetime.datetime(2014, 10, 17, 16, 7, 48), 'client_name': 3, 'plan_name': 'sdfsfsdfs'}"
p215
sS'self'
p216
S'<Table test_plan (id,plan_name,TestScript_Branch,TestScript_Tag,Tool,client_name,begin_time)>'
p217
sS'ret'
p218
g111
sS'self._db._adapter'
p219
S'<gluon.dal.SQLiteAdapter object>'
p220
sS'self._db._adapter.insert'
p221
S'<bound method SQLiteAdapter.insert of <gluon.dal.SQLiteAdapter object>>'
p222
sS'self._db'
p223
S'<DAL uri="sqlite://storage.sqlite">'
p224
ssg74
I9317
sg75
(dp225
I9312
S''
sI9313
S'    def insert(self, **fields):'
p226
sI9314
S'        fields = self._defaults(fields)'
p227
sI9315
S'        self._attempt_upload(fields)'
p228
sI9316
S'        if any(f(fields) for f in self._before_insert): return 0'
p229
sI9317
S'        ret =  self._db._adapter.insert(self, self._listify(fields))'
p230
sI9318
S'        if ret and self._after_insert:'
p231
sI9319
S'            fields = Row(fields)'
p232
sI9320
S'            [f(fields, ret) for f in self._after_insert]'
p233
sI9321
S'        return ret'
p234
ssg87
S"(self=<Table test_plan (id,plan_name,TestScript_Branch,TestScript_Tag,Tool,client_name,begin_time)>, **fields={'TestScript_Branch': '', 'TestScript_Tag': '', 'Tool': 1, 'begin_time': datetime.datetime(2014, 10, 17, 16, 7, 48), 'client_name': 3, 'plan_name': 'sdfsfsdfs'})"
p235
sg89
S'insert'
p236
sa(dp237
g66
S'D:\\project\\web\\web2py\\gluon\\dal.py'
p238
sg68
(dp239
S'e'
S"IntegrityError('foreign key constraint failed',)"
p240
ssg74
I1361
sg75
(dp241
I1356
S'            self.execute(query)'
p242
sI1357
S'        except Exception:'
p243
sI1358
S'            e = sys.exc_info()[1]'
p244
sI1359
S"            if hasattr(table, '_on_insert_error'):"
p245
sI1360
S'                return table._on_insert_error(table, fields, e)'
p246
sI1361
S'            raise e'
p247
sI1362
S"        if hasattr(table, '_primarykey'):"
p248
sI1363
S'            mydict = dict([(k[0].name, k[1]) for k in fields if k[0].name in table._primarykey])'
p249
sI1364
S'            if mydict != {}:'
p250
sI1365
S'                return mydict'
p251
ssg87
S"(self=<gluon.dal.SQLiteAdapter object>, table=<Table test_plan (id,plan_name,TestScript_Branch,TestScript_Tag,Tool,client_name,begin_time)>, fields=[(<gluon.dal.Field object>, 1), (<gluon.dal.Field object>, ''), (<gluon.dal.Field object>, ''), (<gluon.dal.Field object>, datetime.datetime(2014, 10, 17, 16, 7, 48)), (<gluon.dal.Field object>, 'sdfsfsdfs'), (<gluon.dal.Field object>, 3)])"
p252
sg89
g236
sasS'pyver'
p253
S'Python 2.7.8: C:\\Python27\\python.exe (prefix: C:\\Python27)'
p254
sS'session'
p255
g61
(S's\xb9\x01\x00\x00<div><table><tr><td style="font-weight:bold;vertical-align:top;">flash</td><td style="vertical-align:top;">:</td><td><div>None</div></td></tr><tr><td style="font-weight:bold;vertical-align:top;">last_orderby</td><td style="vertical-align:top;">:</td><td><div>None</div></td></tr><tr><td style="font-weight:bold;vertical-align:top;">last_query</td><td style="vertical-align:top;">:</td><td><div>db.client.id&gt;0</div></td></tr></table></div>'
tRp256
sS'etype'
p257
S"<class 'sqlite3.IntegrityError'>"
p258
sS'date'
p259
S'Fri Oct 17 16:07:51 2014'
p260
sS'response'
p261
g61
(S's\xc52\x00\x00<div><table><tr><td style="font-weight:bold;vertical-align:top;">body</td><td style="vertical-align:top;">:</td><td><div>&lt;cStringIO.StringO object at 0x0C8B8EE0&gt;</div></td></tr><tr><td style="font-weight:bold;vertical-align:top;">cookies</td><td style="vertical-align:top;">:</td><td><div><table><tr><td style="font-weight:bold;vertical-align:top;">session_id_tatserver</td><td style="vertical-align:top;">:</td><td><div>127.0.0.1-7e199da8-cecc-40ab-9709-260ab832d39a<table><tr><td style="font-weight:bold;vertical-align:top;">comment</td><td style="vertical-align:top;">:</td><td><div></div></td></tr><tr><td style="font-weight:bold;vertical-align:top;">domain</td><td style="vertical-align:top;">:</td><td><div></div></td></tr><tr><td style="font-weight:bold;vertical-align:top;">expires</td><td style="vertical-align:top;">:</td><td><div></div></td></tr><tr><td style="font-weight:bold;vertical-align:top;">httponly</td><td style="vertical-align:top;">:</td><td><div></div></td></tr><tr><td style="font-weight:bold;vertical-align:top;">max-age</td><td style="vertical-align:top;">:</td><td><div></div></td></tr><tr><td style="font-weight:bold;vertical-align:top;">path</td><td style="vertical-align:top;">:</td><td><div>/</div></td></tr><tr><td style="font-weight:bold;vertical-align:top;">secure</td><td style="vertical-align:top;">:</td><td><div></div></td></tr><tr><td style="font-weight:bold;vertical-align:top;">version</td><td style="vertical-align:top;">:</td><td><div></div></td></tr></table></div></td></tr></table></div></td></tr><tr><td style="font-weight:bold;vertical-align:top;">delimiters</td><td style="vertical-align:top;">:</td><td><div><table><tr><td><div>{{</div></td></tr><tr><td><div>}}</div></td></tr></table></div></td></tr><tr><td style="font-weight:bold;vertical-align:top;">files</td><td style="vertical-align:top;">:</td><td><div><table></table></div></td></tr><tr><td style="font-weight:bold;vertical-align:top;">flash</td><td style="vertical-align:top;">:</td><td><div></div></td></tr><tr><td style="font-weight:bold;vertical-align:top;">form_label_separator</td><td style="vertical-align:top;">:</td><td><div>: </div></td></tr><tr><td style="font-weight:bold;vertical-align:top;">formstyle</td><td style="vertical-align:top;">:</td><td><div>table3cols</div></td></tr><tr><td style="font-weight:bold;vertical-align:top;">generic_patterns</td><td style="vertical-align:top;">:</td><td><div><table><tr><td><div>*</div></td></tr></table></div></td></tr><tr><td style="font-weight:bold;vertical-align:top;">google_analytics_id</td><td style="vertical-align:top;">:</td><td><div>None</div></td></tr><tr><td style="font-weight:bold;vertical-align:top;">headers</td><td style="vertical-align:top;">:</td><td><div><table><tr><td style="font-weight:bold;vertical-align:top;">X-Powered-By</td><td style="vertical-align:top;">:</td><td><div>web2py</div></td></tr></table></div></td></tr><tr><td style="font-weight:bold;vertical-align:top;">logo</td><td style="vertical-align:top;">:</td><td><div><a class="brand" href="http://www.web2py.com/"><b>web<span>2</span>py</b>&trade;&nbsp;</a></div></td></tr><tr><td style="font-weight:bold;vertical-align:top;">menu</td><td style="vertical-align:top;">:</td><td><div><table><tr><td><div><table><tr><td><div>Home</div></td></tr><tr><td><div>False</div></td></tr><tr><td><div>/TATSERVER/default/index</div></td></tr><tr><td><div><table></table></div></td></tr></table></div></td></tr><tr><td><div><table><tr><td><div><span class="highlighted">web2py</span></div></td></tr><tr><td><div>False</div></td></tr><tr><td><div>http://web2py.com</div></td></tr><tr><td><div><table><tr><td><div><table><tr><td><div>My Sites</div></td></tr><tr><td><div>False</div></td></tr><tr><td><div>/admin/default/site</div></td></tr></table></div></td></tr><tr><td><div><table><tr><td><div>\xe8\xaf\xa5\xe5\xba\x94\xe7\x94\xa8</div></td></tr><tr><td><div>False</div></td></tr><tr><td><div>/admin/default/design/TATSERVER</div></td></tr><tr><td><div>[(&lt;lazyT &#x27;Controller&#x27;&gt;, False, &#x27;/admin/default/edit/TATSERVER/controllers/default.py&#x27;), (&lt;lazyT &#x27;View&#x27;&gt;, False, &#x27;/admin/default/edit/TATSERVER/views/default/make_plan.html&#x27;), (&lt;lazyT &#x27;Layout&#x27;&gt;, False, &#x27;/admin/default/edit/TATSERVER/views/layout.html&#x27;), (&lt;lazyT &#x27;Stylesheet&#x27;&gt;, False, &#x27;/admin/default/edit/TATSERVER/static/css/web2py.css&#x27;), (&lt;lazyT &#x27;DB Model&#x27;&gt;, False, &#x27;/admin/default/edit/TATSERVER/models/db.py&#x27;), (&lt;lazyT &#x27;Menu Model&#x27;&gt;, False, &#x27;/admin/default/edit/TATSERVER/models/menu.py&#x27;), (&lt;lazyT &#x27;Database&#x27;&gt;, False, &#x27;/TATSERVER/appadmin/index&#x27;), (&lt;lazyT &#x27;Errors&#x27;&gt;, False, &#x27;/admin/default/errors/TATSERVER&#x27;), (&lt;lazyT &#x27;About&#x27;&gt;, False, &#x27;/admin/default/about/TATSERVER&#x27;)]</div></td></tr></table></div></td></tr><tr><td><div><table><tr><td><div>web2py.com</div></td></tr><tr><td><div>False</div></td></tr><tr><td><div>http://www.web2py.com</div></td></tr><tr><td><div>[(&lt;lazyT &#x27;Download&#x27;&gt;, False, &#x27;http://www.web2py.com/examples/default/download&#x27;), (&lt;lazyT &#x27;Support&#x27;&gt;, False, &#x27;http://www.web2py.com/examples/default/support&#x27;), (&lt;lazyT &#x27;Demo&#x27;&gt;, False, &#x27;http://web2py.com/demo_admin&#x27;), (&lt;lazyT &#x27;Quick Examples&#x27;&gt;, False, &#x27;http://web2py.com/examples/default/examples&#x27;), (&lt;lazyT &#x27;FAQ&#x27;&gt;, False, &#x27;http://web2py.com/AlterEgo&#x27;), (&lt;lazyT &#x27;Videos&#x27;&gt;, False, &#x27;http://www.web2py.com/examples/default/videos/&#x27;), (&lt;lazyT &#x27;Free Applications&#x27;&gt;, False, &#x27;http://web2py.com/appliances&#x27;), (&lt;lazyT &#x27;Plugins&#x27;&gt;, False, &#x27;http://web2py.com/plugins&#x27;), (&lt;lazyT &#x27;Layouts&#x27;&gt;, False, &#x27;http://web2py.com/layouts&#x27;), (&lt;lazyT &#x27;Recipes&#x27;&gt;, False, &#x27;http://web2pyslices.com/&#x27;), (&lt;lazyT &#x27;Semantic&#x27;&gt;, False, &#x27;http://web2py.com/semantic&#x27;)]</div></td></tr></table></div></td></tr><tr><td><div><table><tr><td><div>Documentation</div></td></tr><tr><td><div>False</div></td></tr><tr><td><div>http://www.web2py.com/book</div></td></tr><tr><td><div>[(&lt;lazyT &#x27;Preface&#x27;&gt;, False, &#x27;http://www.web2py.com/book/default/chapter/00&#x27;), (&lt;lazyT &#x27;Introduction&#x27;&gt;, False, &#x27;http://www.web2py.com/book/default/chapter/01&#x27;), (&lt;lazyT &#x27;Python&#x27;&gt;, False, &#x27;http://www.web2py.com/book/default/chapter/02&#x27;), (&lt;lazyT &#x27;Overview&#x27;&gt;, False, &#x27;http://www.web2py.com/book/default/chapter/03&#x27;), (&lt;lazyT &#x27;The Core&#x27;&gt;, False, &#x27;http://www.web2py.com/book/default/chapter/04&#x27;), (&lt;lazyT &#x27;The Views&#x27;&gt;, False, &#x27;http://www.web2py.com/book/default/chapter/05&#x27;), (&lt;lazyT &#x27;Database&#x27;&gt;, False, &#x27;http://www.web2py.com/book/default/chapter/06&#x27;), (&lt;lazyT &#x27;Forms and Validators&#x27;&gt;, False, &#x27;http://www.web2py.com/book/default/chapter/07&#x27;), (&lt;lazyT &#x27;Email and SMS&#x27;&gt;, False, &#x27;http://www.web2py.com/book/default/chapter/08&#x27;), (&lt;lazyT &#x27;Access Control&#x27;&gt;, False, &#x27;http://www.web2py.com/book/default/chapter/09&#x27;), (&lt;lazyT &#x27;Services&#x27;&gt;, False, &#x27;http://www.web2py.com/book/default/chapter/10&#x27;), (&lt;lazyT &#x27;Ajax Recipes&#x27;&gt;, False, &#x27;http://www.web2py.com/book/default/chapter/11&#x27;), (&lt;lazyT &#x27;Components and Plugins&#x27;&gt;, False, &#x27;http://www.web2py.com/book/default/chapter/12&#x27;), (&lt;lazyT &#x27;Deployment Recipes&#x27;&gt;, False, &#x27;http://www.web2py.com/book/default/chapter/13&#x27;), (&lt;lazyT &#x27;Other Recipes&#x27;&gt;, False, &#x27;http://www.web2py.com/book/default/chapter/14&#x27;), (&lt;lazyT &#x27;Buy this book&#x27;&gt;, False, &#x27;http://stores.lulu.com/web2py&#x27;)]</div></td></tr></table></div></td></tr><tr><td><div><table><tr><td><div>Community</div></td></tr><tr><td><div>False</div></td></tr><tr><td><div>None</div></td></tr><tr><td><div>[(&lt;lazyT &#x27;Groups&#x27;&gt;, False, &#x27;http://www.web2py.com/examples/default/usergroups&#x27;), (&lt;lazyT &#x27;Twitter&#x27;&gt;, False, &#x27;http://twitter.com/web2py&#x27;), (&lt;lazyT &#x27;Live Chat&#x27;&gt;, False, &#x27;http://webchat.freenode.net/?channels=web2py&#x27;)]</div></td></tr></table></div></td></tr><tr><td><div><table><tr><td><div>Plugins</div></td></tr><tr><td><div>False</div></td></tr><tr><td><div>None</div></td></tr><tr><td><div>[(&#x27;plugin_wiki&#x27;, False, &#x27;http://web2py.com/examples/default/download&#x27;), (&lt;lazyT &#x27;Other Plugins&#x27;&gt;, False, &#x27;http://web2py.com/plugins&#x27;), (&lt;lazyT &#x27;Layout Plugins&#x27;&gt;, False, &#x27;http://web2py.com/layouts&#x27;)]</div></td></tr></table></div></td></tr></table></div></td></tr></table></div></td></tr></table></div></td></tr><tr><td style="font-weight:bold;vertical-align:top;">meta</td><td style="vertical-align:top;">:</td><td><div><table><tr><td style="font-weight:bold;vertical-align:top;">author</td><td style="vertical-align:top;">:</td><td><div>Your Name &lt;you@example.com&gt;</div></td></tr><tr><td style="font-weight:bold;vertical-align:top;">generator</td><td style="vertical-align:top;">:</td><td><div>Web2py Web Framework</div></td></tr><tr><td style="font-weight:bold;vertical-align:top;">keywords</td><td style="vertical-align:top;">:</td><td><div>web2py, python, framework</div></td></tr></table></div></td></tr><tr><td style="font-weight:bold;vertical-align:top;">models_to_run</td><td style="vertical-align:top;">:</td><td><div><table><tr><td><div>^\\w+\\.py$</div></td></tr><tr><td><div>^default/\\w+\\.py$</div></td></tr><tr><td><div>^default/make_plan/\\w+\\.py$</div></td></tr></table></div></td></tr><tr><td style="font-weight:bold;vertical-align:top;">postprocessing</td><td style="vertical-align:top;">:</td><td><div><table></table></div></td></tr><tr><td style="font-weight:bold;vertical-align:top;">session_client</td><td style="vertical-align:top;">:</td><td><div>127.0.0.1</div></td></tr><tr><td style="font-weight:bold;vertical-align:top;">session_cookie_compression_level</td><td style="vertical-align:top;">:</td><td><div>None</div></td></tr><tr><td style="font-weight:bold;vertical-align:top;">session_cookie_expires</td><td style="vertical-align:top;">:</td><td><div>None</div></td></tr><tr><td style="font-weight:bold;vertical-align:top;">session_cookie_key</td><td style="vertical-align:top;">:</td><td><div>None</div></td></tr><tr><td style="font-weight:bold;vertical-align:top;">session_data_name</td><td style="vertical-align:top;">:</td><td><div>session_data_tatserver</div></td></tr><tr><td style="font-weight:bold;vertical-align:top;">session_file</td><td style="vertical-align:top;">:</td><td><div>&lt;open file &#x27;D:\\\\project\\\\web\\\\web2py\\\\applications\\\\TATSERVER\\\\sessions\\\\0f6\\\\1bf\\\\127.0.0.1-7e199da8-cecc-40ab-9709-260ab832d39a&#x27;, mode &#x27;rb+&#x27; at 0x03073A70&gt;</div></td></tr><tr><td style="font-weight:bold;vertical-align:top;">session_filename</td><td style="vertical-align:top;">:</td><td><div>D:\\project\\web\\web2py\\applications\\TATSERVER\\sessions\\127.0.0.1-7e199da8-cecc-40ab-9709-260ab832d39a</div></td></tr><tr><td style="font-weight:bold;vertical-align:top;">session_hash</td><td style="vertical-align:top;">:</td><td><div>ef36f943ef6c1f13f255dc94f99a021f</div></td></tr><tr><td style="font-weight:bold;vertical-align:top;">session_id</td><td style="vertical-align:top;">:</td><td><div>127.0.0.1-7e199da8-cecc-40ab-9709-260ab832d39a</div></td></tr><tr><td style="font-weight:bold;vertical-align:top;">session_id_name</td><td style="vertical-align:top;">:</td><td><div>session_id_tatserver</div></td></tr><tr><td style="font-weight:bold;vertical-align:top;">session_locked</td><td style="vertical-align:top;">:</td><td><div>True</div></td></tr><tr><td style="font-weight:bold;vertical-align:top;">session_masterapp</td><td style="vertical-align:top;">:</td><td><div>TATSERVER</div></td></tr><tr><td style="font-weight:bold;vertical-align:top;">session_new</td><td style="vertical-align:top;">:</td><td><div>False</div></td></tr><tr><td style="font-weight:bold;vertical-align:top;">session_storage_type</td><td style="vertical-align:top;">:</td><td><div>file</div></td></tr><tr><td style="font-weight:bold;vertical-align:top;">status</td><td style="vertical-align:top;">:</td><td><div>200</div></td></tr><tr><td style="font-weight:bold;vertical-align:top;">subtitle</td><td style="vertical-align:top;">:</td><td><div></div></td></tr><tr><td style="font-weight:bold;vertical-align:top;">title</td><td style="vertical-align:top;">:</td><td><div>Tatserver</div></td></tr><tr><td style="font-weight:bold;vertical-align:top;">view</td><td style="vertical-align:top;">:</td><td><div>default/make_plan.html</div></td></tr></table></div>'
tRp262
sS'locals'
p263
(dp264
S'query'
p265
S'"INSERT INTO test_plan(Tool,TestScript_Tag,TestSc...ES (1,\'\',\'\',\'2014-10-17 16:07:48\',\'sdfsfsdfs\',3);"'
p266
sS'self'
p267
S'<gluon.dal.SQLiteAdapter object>'
p268
sS'e'
S"IntegrityError('foreign key constraint failed',)"
p269
sS'fields'
p270
S"[(<gluon.dal.Field object>, 1), (<gluon.dal.Field object>, ''), (<gluon.dal.Field object>, ''), (<gluon.dal.Field object>, datetime.datetime(2014, 10, 17, 16, 7, 48)), (<gluon.dal.Field object>, 'sdfsfsdfs'), (<gluon.dal.Field object>, 3)]"
p271
sS'table'
p272
S'<Table test_plan (id,plan_name,TestScript_Branch,TestScript_Tag,Tool,client_name,begin_time)>'
p273
sssS'traceback'
p274
S'Traceback (most recent call last):\n  File "D:\\project\\web\\web2py\\gluon\\restricted.py", line 224, in restricted\n    exec ccode in environment\n  File "D:\\project\\web\\web2py\\applications\\TATSERVER\\controllers/default.py", line 166, in <module>\n  File "D:\\project\\web\\web2py\\gluon\\globals.py", line 392, in <lambda>\n    self._caller = lambda f: f()\n  File "D:\\project\\web\\web2py\\applications\\TATSERVER\\controllers/default.py", line 58, in make_plan\n    if plan_form.process().accepted:\n  File "D:\\project\\web\\web2py\\gluon\\html.py", line 2303, in process\n    self.validate(**kwargs)\n  File "D:\\project\\web\\web2py\\gluon\\html.py", line 2240, in validate\n    if self.accepts(**kwargs):\n  File "D:\\project\\web\\web2py\\gluon\\sqlhtml.py", line 1671, in accepts\n    self.vars.id = self.table.insert(**fields)\n  File "D:\\project\\web\\web2py\\gluon\\dal.py", line 9317, in insert\n    ret =  self._db._adapter.insert(self, self._listify(fields))\n  File "D:\\project\\web\\web2py\\gluon\\dal.py", line 1361, in insert\n    raise e\nIntegrityError: foreign key constraint failed\n'
p275
s.