(dp1
S'output'
p2
S'<type \'exceptions.IOError\'> [Errno 2] No such file or directory: u\'\\ufeff<?xml version="1.0" encoding="utf-8"?>\\n<RESULTS>\\n  <PLANTYPE>ATT STABILITY</PLANTYPE>\\n  <DebugLOG>D:\\\\TAT\\\\Debug\\\\8bf5f7f - 20141017172120</DebugLOG>\\n  <AndroidLOG>D:\\\\TAT\\\\Logs\\\\8bf5f7f - 20141017172120</AndroidLOG>\\n  <TimeStamp>20141017172120</TimeStamp>\\n  <CASES>\\n    <Case>\\n      <NAME>alarm</NAME>\\n      <TOTALTIMES>0</TOTALTIMES>\\n      <SuccessRate>0</SuccessRate>\\n      <DATA>\\n        <LOOP>\\n          <TIME>00:00:10</TIME>\\n          <SUCCESSTIMES>0</SUCCESSTIMES>\\n        </LOOP>\\n      </DATA>\\n    </Case>\\n    <Case>\\n      <NAME>5.1.7_Multi-Media</NAME>\\n      <TOTALTIMES>0</TOTALTIMES>\\n      <SuccessRate>0</SuccessRate>\\n      <DATA>\\n        <LOOP>\\n          <TIME>00:00:10</TIME>\\n          <SUCCESSTIMES>0</SUCCESSTIMES>\\n        </LOOP>\\n      </DATA>\\n    </Case>\\n    <Case>\\n      <NAME>multiplay</NAME>\\n      <TOTALTIMES>0</TOTALTIMES>\\n      <SuccessRate>0</SuccessRate>\\n      <DATA>\\n        <LOOP>\\n          <TIME>00:00:09</TIME>\\n          <SUCCESSTIMES>0</SUCCESSTIMES>\\n        </LOOP>\\n      </DATA>\\n    </Case>\\n  </CASES>\\n</RESULTS>\''
p3
sS'layer'
p4
S'D:\\project\\web\\web2py\\applications\\tatserver\\controllers/default.py'
p5
sS'code'
p6
S'# -*- coding: utf-8 -*-\n# this file is released under public domain and you can use without limitations\n\n#########################################################################\n## This is a sample controller\n## - index is the default action of any application\n## - user is required for authentication and authorization\n## - download is for downloading files uploaded in the db (does streaming)\n## - api is an example of Hypermedia API support and access control\n#########################################################################\n\ndef index():\n    """\n    example action using the internationalization operator T and flash\n    rendered by views/default/index.html or views/generic.html\n\n    if you need a simple wiki simply replace the two lines below with:\n    return auth.wiki()\n    """\n    response.flash = T("Welcome to web2py!")\n    return dict(message=T(\'Hello World\'))\n\ndef getpersom(value):\n    return\n\ndef make_plan():\n    # a = ["b","aaa","ccc"]\n    #\n    # pj_dict = {"Alto5":{"v3H20":{"ZZ":"x3h2zz00bg00","ZZ":"x3h21230bg00"}},"Alto4":{"vasdH20":{"ZZ":"x3h2zz00bg00","ZZ":"x3h21230bg00"}}}\n    #\n    #\n    # project_form = FORM(TABLE(\n    #     TR(\'project:\', INPUT(_type=\'text\', _name=\'name\',requires=IS_NOT_EMPTY())),\n    #     TR(\'Your email:\', INPUT(_type=\'text\', _name=\'email\',requires=IS_EMAIL())),\n    #     TR(\'Admin\', INPUT(_type=\'checkbox\', _name=\'admin\')),\n    #     TR(\'persos\', SELECT(a, _name=\'sure\',\n    #                         onChange="getpersom(this.value)",align=\'top\',requires=IS_IN_SET([\'yes\', \'no\']))),\n    #     TR(\'persos_m\', SELECT(a, _name=\'persos_m\',hidden=True)),\n    # ))\n    # plan_form = FORM(TABLE(\n    #     TR(\'project:\', INPUT(_type=\'text\', _name=\'name\',requires=IS_NOT_EMPTY())),\n    #     TR(\'Test Type:\', INPUT(_type=\'text\', _name=\'test_type\',requires=IS_NOT_EMPTY())),\n    #     TR(\'TestScript Branch:\', INPUT(_type=\'text\', _name=\'scrip_branch\',requires=IS_NOT_EMPTY())),\n    #     TR(\'TestScript Tag:\', INPUT(_type=\'text\', _name=\'scrip_tag\',requires=IS_NOT_EMPTY())),\n    #     TR(\'tool:\', INPUT(_type=\'text\', _name=\'tool\',requires=IS_EMAIL())),\n    #     TR(\'begin time\', INPUT(__type=\'date\', _name=\'begin_time\',requires=IS_TIME())),\n    #     TR(\'client_name\', SELECT(a, _name=\'sure\',\n    #                         onChange="getpersom(this.value)",align=\'top\',requires=IS_IN_SET([\'yes\', \'no\']))),\n    #     TR(\'\', INPUT(_type=\'submit\', _value=\'SUBMIT\')),\n    # ))\n    # db.tool.update_or_insert(tool_version = 1.0)\n    # plan_form1 = SQLFORM(db.test_plan)\n    # if plan_form1.process().accepted:\n    #     response.flash = \'record inserted\'\n    # return dict(project_form = project_form,plan_form = plan_form1,pj_dict = pj_dict)\n    db.tool.update_or_insert(tool_version = 1.0)\n    plan_form = SQLFORM(db.test_plan)\n    if plan_form.process().accepted:\n        response.flash = \'record inserted\'\n    return dict(plan_form = plan_form)\n\ndef get_report():\n    return "success"\n\ndef display():\n    form = SQLFORM(db.test_plan)\n    return dict(form = form)\n\ndef show_testplan():\n    return dict(list_plan= db(db.test_plan).select())\n\ndef new_client():\n    form = SQLFORM(db.client)\n    if form.accepts(request.post_vars,session):\n        session.flash = \'client created ok\'\n        redirect(URL(\'show_clients\'))\n    Message ="New Client"\n    return dict(form=form,message=Message)\n\ndef delete_client():\n    form = SQLFORM(db.client)\n    if form.accepts(request.post_vars,session):\n        session.flash = \'client created ok\'\n        redirect(URL(\'show_clients\'))\n    Message ="New Client"\n    return dict(form=form,message=Message)\n\ndef show_client_status():\n    plans = []\n    testStatus = {"client_name":"lz","testor_name":"lz","status":"running","plan_list":["111","222222"]}\n    list_client = db(db.client).select()\n    for client in list_client:\n        #RPC Function\n        if testStatus["client_name"]==client.name:\n            # myquery = (db.test_client.client_name == testStatus["client_name"])\n            # myset = db(myquery)\n            # if None != myset:\n            #     myset.update(status=testStatus["status"])\n            #     myset.delete()\n            # else:\n            #     pass\n            plans.append(testStatus["plan_list"])\n            db.test_client.update_or_insert(client_name="lz",testor_name="l1z",status="running",plan_list="111,222222")\n    return dict(form = SQLFORM(db.test_client), list_client = db(db.test_client).select())\n\ndef show_all_testplan():\n    return dict(list_plan= db(db.test_plan).select())\n\ndef show_clients():\n    list_client = db(db.client).select()\n    return dict(list_client =list_client)\n\ndef show_all_report():\n    from applications.TATServer.modules.xmldict import xml2dict\n    report = {}\n    list_client = db(db.client).select()\n    for client in list_client:\n        report[client.name] = {}\n        try:\n            for device,test_data in db_rpc.show_all_report(client.url).items():\n                report[client.name].update({device:xml2dict(test_data)})\n        except:\n            continue\n    return dict(list_client =list_client ,report = report)\n\ndef flush_all_devices():\n    list_client = db(db.client).select()\n    devices = {}\n    for client in list_client:\n        for device,detail in db_rpc.show_device(client.url).items():\n            device_id = device+"_"+detail["product"]\n            devices[device_id] = detail\n            db.device.update_or_insert(name = device_id,display_id = detail["display_id"],\n                                       build_date = detail["build_date"],product = detail["product"],\n                                       region = detail["region"],hardware = detail["hardware"],\n                                       build_type = detail["build_type"],host_name = client.id)\n    redirect(URL(\'show_all_devices\'))\n    Message ="Flush all devices Success!"\n    return dict(message=Message)\n\ndef show_all_devices():\n    list_devices = db(db.device).select()\n    return dict(list_device =list_devices)\n\ndef show_device_status():\n    list_devices = db(db.device_status).select()\n    return dict(list_devices =list_devices)\n\n\ndef show_device():\n    pass\n\ndef show_testplan_report():\n    list_device = []\n    report = {}\n    data = []\n    from applications.TATServer.modules.xmldict import xml2dict\n    from applications.TATServer.modules.TestData import TestData\n    for id in request.args:\n        devices = db(db.device.id==id).select().first()\n        # devices =  db.client(id)\n        url = devices.host_name.url\n        for device,test_data in db_rpc.show_all_report(url).items():\n            list_device.append(device)\n            if (device == devices.name):\n                report[device] = xml2dict(test_data)\n                data = TestData(test_data)\n\n            # fullTestData=\'/data/TAT/ClientName/\' + client[0] +\'/\'+planname+\'/TestData.xml\'\n            # anTestData=TestData.TestData(fullTestData)\n            # testdata=anTestData.main()\n            # #print testdata\n            # title_num=len(testdata[0])+4\n            # if existHead==0:\n            #     existHead=1\n            #     tableHead=[\'SW\',\'Client\',\'MTBF\',\'Status\'] + testdata[0]\n            #     for head in tableHead:\n            #         headtr << td(head,bgcolor=\'#66CCFF\')\n            #\n            # tr1=table1<<tr(id=\'line\'+str(seq),height="27",align="center")\n            # if k==0:\n            #     tr1 << td(SW[0][0],rowspan=totalLine,bgcolor=\'#FFCC66\')\n            #     k=k+1\n            # tr1 << td(client[0],rowspan=4)\n            # tr1 << td(testdata[1],rowspan=4)\n            # tr1 << td(client[2],rowspan=4)\n            # tr1 << td(\'Avg Pass Rate\',colspan=len(testdata[0]),bgcolor=\'#99CC66\')\n            # seq=seq+1\n            #\n            # tr2=table1<<tr(id=\'line\'+str(seq),height="27",align="center")\n            # for i in range(len(testdata[0])):\n            #     tr2 << td(testdata[3][i])\n            # seq=seq+1\n            #\n            # tr3=table1<<tr(id=\'line\'+str(seq),height="27",align="center")\n            # tr3 << td(\'Avg Loop Time\',colspan=len(testdata[0]),bgcolor=\'#66CCFF\')\n            # seq=seq+1\n            #\n            # tr4=table1<<tr(id=\'line\'+str(seq),height="27",align="center")\n            # for i in range(len(testdata[0])):\n            #     tr4 << td(testdata[2][i])\n            # seq=seq+1\n    return dict(list_status =report,data = data)\n\ndef user():\n    """\n    exposes:\n    http://..../[app]/default/user/login\n    http://..../[app]/default/user/logout\n    http://..../[app]/default/user/register\n    http://..../[app]/default/user/profile\n    http://..../[app]/default/user/retrieve_password\n    http://..../[app]/default/user/change_password\n    http://..../[app]/default/user/manage_users (requires membership in\n    use @auth.requires_login()\n        @auth.requires_membership(\'group name\')\n        @auth.requires_permission(\'read\',\'table name\',record_id)\n    to decorate functions that need access control\n    """\n    return dict(form=auth())\n\n\n@cache.action()\ndef download():\n    """\n    allows downloading of uploaded files\n    http://..../[app]/default/download/[filename]\n    """\n    return response.download(request, db)\n\n\ndef call():\n    """\n    exposes services. for example:\n    http://..../[app]/default/call/jsonrpc\n    decorate with @services.jsonrpc the functions to expose\n    supports xml, json, xmlrpc, jsonrpc, amfrpc, rss, csv\n    """\n    return service()\n\n\n@auth.requires_login() \ndef api():\n    """\n    this is example of API with access control\n    WEB2PY provides Hypermedia API (Collection+JSON) Experimental\n    """\n    from gluon.contrib.hypermedia import Collection\n    rules = {\n        \'<tablename>\': {\'GET\':{},\'POST\':{},\'PUT\':{},\'DELETE\':{}},\n        }\n    return Collection(db).process(request,response,rules)\n\nresponse._vars=response._caller(show_testplan_report)\n'
p7
sS'snapshot'
p8
(dp9
S'exception'
p10
(dp11
S'__getslice__'
p12
S"<method-wrapper '__getslice__' of exceptions.IOError object>"
p13
sS'__str__'
p14
S"<method-wrapper '__str__' of exceptions.IOError object>"
p15
sS'__reduce__'
p16
S'<built-in method __reduce__ of exceptions.IOError object>'
p17
sS'__dict__'
p18
S'{}'
p19
sS'__sizeof__'
p20
S'<built-in method __sizeof__ of exceptions.IOError object>'
p21
sS'__init__'
p22
S"<method-wrapper '__init__' of exceptions.IOError object>"
p23
sS'__setattr__'
p24
S"<method-wrapper '__setattr__' of exceptions.IOError object>"
p25
sS'__reduce_ex__'
p26
S'<built-in method __reduce_ex__ of exceptions.IOError object>'
p27
sS'__new__'
p28
S'<built-in method __new__ of type object>'
p29
sS'errno'
p30
S'2'
sS'__format__'
p31
S'<built-in method __format__ of exceptions.IOError object>'
p32
sS'__class__'
p33
S"<type 'exceptions.IOError'>"
p34
sS'filename'
p35
S'u\'\\ufeff<?xml version="1.0" encoding="utf-8"?>\\n...    </DATA>\\n    </Case>\\n  </CASES>\\n</RESULTS>\''
p36
sS'__doc__'
p37
S"'I/O operation failed.'"
p38
sS'__getitem__'
p39
S"<method-wrapper '__getitem__' of exceptions.IOError object>"
p40
sS'__setstate__'
p41
S'<built-in method __setstate__ of exceptions.IOError object>'
p42
sS'__getattribute__'
p43
S"<method-wrapper '__getattribute__' of exceptions.IOError object>"
p44
sS'args'
p45
S"(2, 'No such file or directory')"
p46
sS'__subclasshook__'
p47
S'<built-in method __subclasshook__ of type object>'
p48
sS'__unicode__'
p49
S'<built-in method __unicode__ of exceptions.IOError object>'
p50
sS'strerror'
p51
S"'No such file or directory'"
p52
sS'__delattr__'
p53
S"<method-wrapper '__delattr__' of exceptions.IOError object>"
p54
sS'__repr__'
p55
S"<method-wrapper '__repr__' of exceptions.IOError object>"
p56
sS'__hash__'
p57
S"<method-wrapper '__hash__' of exceptions.IOError object>"
p58
ssS'evalue'
p59
S'[Errno 2] No such file or directory: u\'\\ufeff<?xml version="1.0" encoding="utf-8"?>\\n<RESULTS>\\n  <PLANTYPE>ATT STABILITY</PLANTYPE>\\n  <DebugLOG>D:\\\\TAT\\\\Debug\\\\8bf5f7f - 20141017172120</DebugLOG>\\n  <AndroidLOG>D:\\\\TAT\\\\Logs\\\\8bf5f7f - 20141017172120</AndroidLOG>\\n  <TimeStamp>20141017172120</TimeStamp>\\n  <CASES>\\n    <Case>\\n      <NAME>alarm</NAME>\\n      <TOTALTIMES>0</TOTALTIMES>\\n      <SuccessRate>0</SuccessRate>\\n      <DATA>\\n        <LOOP>\\n          <TIME>00:00:10</TIME>\\n          <SUCCESSTIMES>0</SUCCESSTIMES>\\n        </LOOP>\\n      </DATA>\\n    </Case>\\n    <Case>\\n      <NAME>5.1.7_Multi-Media</NAME>\\n      <TOTALTIMES>0</TOTALTIMES>\\n      <SuccessRate>0</SuccessRate>\\n      <DATA>\\n        <LOOP>\\n          <TIME>00:00:10</TIME>\\n          <SUCCESSTIMES>0</SUCCESSTIMES>\\n        </LOOP>\\n      </DATA>\\n    </Case>\\n    <Case>\\n      <NAME>multiplay</NAME>\\n      <TOTALTIMES>0</TOTALTIMES>\\n      <SuccessRate>0</SuccessRate>\\n      <DATA>\\n        <LOOP>\\n          <TIME>00:00:09</TIME>\\n          <SUCCESSTIMES>0</SUCCESSTIMES>\\n        </LOOP>\\n      </DATA>\\n    </Case>\\n  </CASES>\\n</RESULTS>\''
p60
sS'request'
p61
cgluon.html
XML_unpickle
p62
(S's\xdeY\x00\x00<div><table><tr><td style="font-weight:bold;vertical-align:top;">ajax</td><td style="vertical-align:top;">:</td><td><div>False</div></td></tr><tr><td style="font-weight:bold;vertical-align:top;">application</td><td style="vertical-align:top;">:</td><td><div>tatserver</div></td></tr><tr><td style="font-weight:bold;vertical-align:top;">args</td><td style="vertical-align:top;">:</td><td><div><table><tr><td><div>10</div></td></tr></table></div></td></tr><tr><td style="font-weight:bold;vertical-align:top;">cid</td><td style="vertical-align:top;">:</td><td><div>None</div></td></tr><tr><td style="font-weight:bold;vertical-align:top;">client</td><td style="vertical-align:top;">:</td><td><div>127.0.0.1</div></td></tr><tr><td style="font-weight:bold;vertical-align:top;">controller</td><td style="vertical-align:top;">:</td><td><div>default</div></td></tr><tr><td style="font-weight:bold;vertical-align:top;">cookies</td><td style="vertical-align:top;">:</td><td><div><table><tr><td style="font-weight:bold;vertical-align:top;">session_id_admin</td><td style="vertical-align:top;">:</td><td><div>127.0.0.1-91932b69-8494-40f1-a8f1-f5aade553a0e<table><tr><td style="font-weight:bold;vertical-align:top;">comment</td><td style="vertical-align:top;">:</td><td><div></div></td></tr><tr><td style="font-weight:bold;vertical-align:top;">domain</td><td style="vertical-align:top;">:</td><td><div></div></td></tr><tr><td style="font-weight:bold;vertical-align:top;">expires</td><td style="vertical-align:top;">:</td><td><div></div></td></tr><tr><td style="font-weight:bold;vertical-align:top;">httponly</td><td style="vertical-align:top;">:</td><td><div></div></td></tr><tr><td style="font-weight:bold;vertical-align:top;">max-age</td><td style="vertical-align:top;">:</td><td><div></div></td></tr><tr><td style="font-weight:bold;vertical-align:top;">path</td><td style="vertical-align:top;">:</td><td><div></div></td></tr><tr><td style="font-weight:bold;vertical-align:top;">secure</td><td style="vertical-align:top;">:</td><td><div></div></td></tr><tr><td style="font-weight:bold;vertical-align:top;">version</td><td style="vertical-align:top;">:</td><td><div></div></td></tr></table></div></td></tr><tr><td style="font-weight:bold;vertical-align:top;">session_id_tatserver</td><td style="vertical-align:top;">:</td><td><div>127.0.0.1-87769440-4328-4f77-8e91-f5bac00df812<table><tr><td style="font-weight:bold;vertical-align:top;">comment</td><td style="vertical-align:top;">:</td><td><div></div></td></tr><tr><td style="font-weight:bold;vertical-align:top;">domain</td><td style="vertical-align:top;">:</td><td><div></div></td></tr><tr><td style="font-weight:bold;vertical-align:top;">expires</td><td style="vertical-align:top;">:</td><td><div></div></td></tr><tr><td style="font-weight:bold;vertical-align:top;">httponly</td><td style="vertical-align:top;">:</td><td><div></div></td></tr><tr><td style="font-weight:bold;vertical-align:top;">max-age</td><td style="vertical-align:top;">:</td><td><div></div></td></tr><tr><td style="font-weight:bold;vertical-align:top;">path</td><td style="vertical-align:top;">:</td><td><div></div></td></tr><tr><td style="font-weight:bold;vertical-align:top;">secure</td><td style="vertical-align:top;">:</td><td><div></div></td></tr><tr><td style="font-weight:bold;vertical-align:top;">version</td><td style="vertical-align:top;">:</td><td><div></div></td></tr></table></div></td></tr></table></div></td></tr><tr><td style="font-weight:bold;vertical-align:top;">env</td><td style="vertical-align:top;">:</td><td><div><table><tr><td style="font-weight:bold;vertical-align:top;">HTTP_ACCEPT</td><td style="vertical-align:top;">:</td><td><div>text/html,application/xhtml+xml,application/xml;q=0.9,image/webp,*/*;q=0.8</div></td></tr><tr><td style="font-weight:bold;vertical-align:top;">HTTP_ACCEPT_ENCODING</td><td style="vertical-align:top;">:</td><td><div>gzip,deflate,sdch</div></td></tr><tr><td style="font-weight:bold;vertical-align:top;">HTTP_ACCEPT_LANGUAGE</td><td style="vertical-align:top;">:</td><td><div>zh-CN,zh;q=0.8</div></td></tr><tr><td style="font-weight:bold;vertical-align:top;">HTTP_CACHE_CONTROL</td><td style="vertical-align:top;">:</td><td><div>max-age=0</div></td></tr><tr><td style="font-weight:bold;vertical-align:top;">HTTP_CONNECTION</td><td style="vertical-align:top;">:</td><td><div>keep-alive</div></td></tr><tr><td style="font-weight:bold;vertical-align:top;">HTTP_COOKIE</td><td style="vertical-align:top;">:</td><td><div>session_id_tatserver=127.0.0.1-87769440-4328-4f77-8e91-f5bac00df812; session_id_admin=127.0.0.1-91932b69-8494-40f1-a8f1-f5aade553a0e</div></td></tr><tr><td style="font-weight:bold;vertical-align:top;">HTTP_HOST</td><td style="vertical-align:top;">:</td><td><div>127.0.0.1:8000</div></td></tr><tr><td style="font-weight:bold;vertical-align:top;">HTTP_REFERER</td><td style="vertical-align:top;">:</td><td><div>http://127.0.0.1:8000/tatserver/default/show_testplan</div></td></tr><tr><td style="font-weight:bold;vertical-align:top;">HTTP_USER_AGENT</td><td style="vertical-align:top;">:</td><td><div>Mozilla/5.0 (Windows NT 6.1) AppleWebKit/537.36 (KHTML, like Gecko) Chrome/31.0.1650.63 Safari/537.36 SE 2.X MetaSr 1.0</div></td></tr><tr><td style="font-weight:bold;vertical-align:top;">PATH_INFO</td><td style="vertical-align:top;">:</td><td><div>/tatserver/default/show_testplan_report/10</div></td></tr><tr><td style="font-weight:bold;vertical-align:top;">QUERY_STRING</td><td style="vertical-align:top;">:</td><td><div></div></td></tr><tr><td style="font-weight:bold;vertical-align:top;">REMOTE_ADDR</td><td style="vertical-align:top;">:</td><td><div>127.0.0.1</div></td></tr><tr><td style="font-weight:bold;vertical-align:top;">REMOTE_PORT</td><td style="vertical-align:top;">:</td><td><div>20148</div></td></tr><tr><td style="font-weight:bold;vertical-align:top;">REQUEST_METHOD</td><td style="vertical-align:top;">:</td><td><div>GET</div></td></tr><tr><td style="font-weight:bold;vertical-align:top;">SCRIPT_NAME</td><td style="vertical-align:top;">:</td><td><div></div></td></tr><tr><td style="font-weight:bold;vertical-align:top;">SERVER_NAME</td><td style="vertical-align:top;">:</td><td><div>50419-0</div></td></tr><tr><td style="font-weight:bold;vertical-align:top;">SERVER_PORT</td><td style="vertical-align:top;">:</td><td><div>8000</div></td></tr><tr><td style="font-weight:bold;vertical-align:top;">SERVER_PROTOCOL</td><td style="vertical-align:top;">:</td><td><div>HTTP/1.1</div></td></tr><tr><td style="font-weight:bold;vertical-align:top;">SERVER_SOFTWARE</td><td style="vertical-align:top;">:</td><td><div>Rocket 1.2.6</div></td></tr><tr><td style="font-weight:bold;vertical-align:top;">app_folders</td><td style="vertical-align:top;">:</td><td><div>set([&#x27;D:\\\\project\\\\web\\\\web2py\\\\applications\\\\welcome\\\\&#x27;, &#x27;D:\\\\project\\\\web\\\\web2py\\\\applications\\\\TATServer\\\\&#x27;, &#x27;D:\\\\project\\\\web\\\\web2py\\\\applications\\\\tatserver\\\\&#x27;, &#x27;D:\\\\project\\\\web\\\\web2py\\\\applications\\\\admin\\\\&#x27;, &#x27;D:\\\\project\\\\web\\\\web2py\\\\applications\\\\TATSERVER\\\\&#x27;])</div></td></tr><tr><td style="font-weight:bold;vertical-align:top;">applications_parent</td><td style="vertical-align:top;">:</td><td><div>D:\\project\\web\\web2py</div></td></tr><tr><td style="font-weight:bold;vertical-align:top;">cmd_args</td><td style="vertical-align:top;">:</td><td><div><table></table></div></td></tr><tr><td style="font-weight:bold;vertical-align:top;">cmd_options</td><td style="vertical-align:top;">:</td><td><div>&lt;Values at 0x2a16cb0: {&#x27;verbose&#x27;: False, &#x27;ip&#x27;: &#x27;127.0.0.1&#x27;, &#x27;debuglevel&#x27;: 30, &#x27;with_scheduler&#x27;: False, &#x27;ips&#x27;: [&#x27;fe80::c552:3240:c7e2:7bbe%13&#x27;, &#x27;172.16.44.222&#x27;], &#x27;shutdown_timeout&#x27;: 5, &#x27;taskbar&#x27;: False, &#x27;with_coverage&#x27;: False, &#x27;scheduler_groups&#x27;: None, &#x27;port&#x27;: 8000, &#x27;maxthreads&#x27;: None, &#x27;softcron&#x27;: False, &#x27;server_name&#x27;: &#x27;50419-0&#x27;, &#x27;bpython&#x27;: False, &#x27;nogui&#x27;: False, &#x27;pid_filename&#x27;: &#x27;httpserver.pid&#x27;, &#x27;extcron&#x27;: False, &#x27;runcron&#x27;: False, &#x27;run_system_tests&#x27;: False, &#x27;test&#x27;: None, &#x27;folder&#x27;: &#x27;D:\\\\project\\\\web\\\\web2py&#x27;, &#x27;config&#x27;: &#x27;&#x27;, &#x27;minthreads&#x27;: None, &#x27;shell&#x27;: None, &#x27;run&#x27;: &#x27;&#x27;, &#x27;log_filename&#x27;: &#x27;httpserver.log&#x27;, &#x27;profiler_dir&#x27;: None, &#x27;args&#x27;: [&#x27;&#x27;], &#x27;socket_timeout&#x27;: 5, &#x27;ssl_ca_certificate&#x27;: None, &#x27;scheduler&#x27;: None, &#x27;interfaces&#x27;: None, &#x27;ssl_private_key&#x27;: &#x27;&#x27;, &#x27;gae&#x27;: None, &#x27;password&#x27;: &#x27;&lt;ask&gt;&#x27;, &#x27;request_queue_size&#x27;: 5, &#x27;ssl_certificate&#x27;: &#x27;&#x27;, &#x27;cronjob&#x27;: False, &#x27;numthreads&#x27;: None, &#x27;quiet&#x27;: False, &#x27;import_models&#x27;: False, &#x27;timeout&#x27;: 10, &#x27;plain&#x27;: False, &#x27;nobanner&#x27;: False}&gt;</div></td></tr><tr><td style="font-weight:bold;vertical-align:top;">db_sessions</td><td style="vertical-align:top;">:</td><td><div>set([])</div></td></tr><tr><td style="font-weight:bold;vertical-align:top;">debugging</td><td style="vertical-align:top;">:</td><td><div>False</div></td></tr><tr><td style="font-weight:bold;vertical-align:top;">gluon_parent</td><td style="vertical-align:top;">:</td><td><div>D:\\project\\web\\web2py</div></td></tr><tr><td style="font-weight:bold;vertical-align:top;">http_accept</td><td style="vertical-align:top;">:</td><td><div>text/html,application/xhtml+xml,application/xml;q=0.9,image/webp,*/*;q=0.8</div></td></tr><tr><td style="font-weight:bold;vertical-align:top;">http_accept_encoding</td><td style="vertical-align:top;">:</td><td><div>gzip,deflate,sdch</div></td></tr><tr><td style="font-weight:bold;vertical-align:top;">http_accept_language</td><td style="vertical-align:top;">:</td><td><div>zh-CN,zh;q=0.8</div></td></tr><tr><td style="font-weight:bold;vertical-align:top;">http_cache_control</td><td style="vertical-align:top;">:</td><td><div>max-age=0</div></td></tr><tr><td style="font-weight:bold;vertical-align:top;">http_connection</td><td style="vertical-align:top;">:</td><td><div>keep-alive</div></td></tr><tr><td style="font-weight:bold;vertical-align:top;">http_cookie</td><td style="vertical-align:top;">:</td><td><div>session_id_tatserver=127.0.0.1-87769440-4328-4f77-8e91-f5bac00df812; session_id_admin=127.0.0.1-91932b69-8494-40f1-a8f1-f5aade553a0e</div></td></tr><tr><td style="font-weight:bold;vertical-align:top;">http_host</td><td style="vertical-align:top;">:</td><td><div>127.0.0.1:8000</div></td></tr><tr><td style="font-weight:bold;vertical-align:top;">http_referer</td><td style="vertical-align:top;">:</td><td><div>http://127.0.0.1:8000/tatserver/default/show_testplan</div></td></tr><tr><td style="font-weight:bold;vertical-align:top;">http_user_agent</td><td style="vertical-align:top;">:</td><td><div>Mozilla/5.0 (Windows NT 6.1) AppleWebKit/537.36 (KHTML, like Gecko) Chrome/31.0.1650.63 Safari/537.36 SE 2.X MetaSr 1.0</div></td></tr><tr><td style="font-weight:bold;vertical-align:top;">is_jython</td><td style="vertical-align:top;">:</td><td><div>False</div></td></tr><tr><td style="font-weight:bold;vertical-align:top;">is_pypy</td><td style="vertical-align:top;">:</td><td><div>False</div></td></tr><tr><td style="font-weight:bold;vertical-align:top;">is_source</td><td style="vertical-align:top;">:</td><td><div>True</div></td></tr><tr><td style="font-weight:bold;vertical-align:top;">local_hosts</td><td style="vertical-align:top;">:</td><td><div><table><tr><td><div>50419-0.sagemwireless</div></td></tr><tr><td><div>::ffff:127.0.0.1</div></td></tr><tr><td><div>::1</div></td></tr><tr><td><div>50419-0</div></td></tr><tr><td><div>fe80::c552:3240:c7e2:7bbe%13</div></td></tr><tr><td><div>172.16.44.222</div></td></tr><tr><td><div>127.0.0.1</div></td></tr></table></div></td></tr><tr><td style="font-weight:bold;vertical-align:top;">path_info</td><td style="vertical-align:top;">:</td><td><div>/tatserver/default/show_testplan_report/10</div></td></tr><tr><td style="font-weight:bold;vertical-align:top;">query_string</td><td style="vertical-align:top;">:</td><td><div></div></td></tr><tr><td style="font-weight:bold;vertical-align:top;">remote_addr</td><td style="vertical-align:top;">:</td><td><div>127.0.0.1</div></td></tr><tr><td style="font-weight:bold;vertical-align:top;">remote_port</td><td style="vertical-align:top;">:</td><td><div>20148</div></td></tr><tr><td style="font-weight:bold;vertical-align:top;">request_method</td><td style="vertical-align:top;">:</td><td><div>GET</div></td></tr><tr><td style="font-weight:bold;vertical-align:top;">request_uri</td><td style="vertical-align:top;">:</td><td><div>/tatserver/default/show_testplan_report/10</div></td></tr><tr><td style="font-weight:bold;vertical-align:top;">script_name</td><td style="vertical-align:top;">:</td><td><div></div></td></tr><tr><td style="font-weight:bold;vertical-align:top;">server_name</td><td style="vertical-align:top;">:</td><td><div>50419-0</div></td></tr><tr><td style="font-weight:bold;vertical-align:top;">server_port</td><td style="vertical-align:top;">:</td><td><div>8000</div></td></tr><tr><td style="font-weight:bold;vertical-align:top;">server_protocol</td><td style="vertical-align:top;">:</td><td><div>HTTP/1.1</div></td></tr><tr><td style="font-weight:bold;vertical-align:top;">server_software</td><td style="vertical-align:top;">:</td><td><div>Rocket 1.2.6</div></td></tr><tr><td style="font-weight:bold;vertical-align:top;">web2py_path</td><td style="vertical-align:top;">:</td><td><div>D:\\project\\web\\web2py</div></td></tr><tr><td style="font-weight:bold;vertical-align:top;">web2py_version</td><td style="vertical-align:top;">:</td><td><div>2.9.11-stable+timestamp.2014.09.15.23.35.11</div></td></tr><tr><td style="font-weight:bold;vertical-align:top;">wsgi.errors</td><td style="vertical-align:top;">:</td><td><div>&lt;open file &#x27;&lt;stderr&gt;&#x27;, mode &#x27;w&#x27; at 0x015AD0D0&gt;</div></td></tr><tr><td style="font-weight:bold;vertical-align:top;">wsgi.file_wrapper</td><td style="vertical-align:top;">:</td><td><div>&lt;class wsgiref.util.FileWrapper at 0x029BD3E8&gt;</div></td></tr><tr><td style="font-weight:bold;vertical-align:top;">wsgi.input</td><td style="vertical-align:top;">:</td><td><div>&lt;socket._fileobject object at 0x0C6512B0&gt;</div></td></tr><tr><td style="font-weight:bold;vertical-align:top;">wsgi.multiprocess</td><td style="vertical-align:top;">:</td><td><div>False</div></td></tr><tr><td style="font-weight:bold;vertical-align:top;">wsgi.multithread</td><td style="vertical-align:top;">:</td><td><div>True</div></td></tr><tr><td style="font-weight:bold;vertical-align:top;">wsgi.run_once</td><td style="vertical-align:top;">:</td><td><div>False</div></td></tr><tr><td style="font-weight:bold;vertical-align:top;">wsgi.url_scheme</td><td style="vertical-align:top;">:</td><td><div>http</div></td></tr><tr><td style="font-weight:bold;vertical-align:top;">wsgi.version</td><td style="vertical-align:top;">:</td><td><div><table><tr><td><div>1</div></td></tr><tr><td><div>0</div></td></tr></table></div></td></tr><tr><td style="font-weight:bold;vertical-align:top;">wsgi_errors</td><td style="vertical-align:top;">:</td><td><div>&lt;open file &#x27;&lt;stderr&gt;&#x27;, mode &#x27;w&#x27; at 0x015AD0D0&gt;</div></td></tr><tr><td style="font-weight:bold;vertical-align:top;">wsgi_file_wrapper</td><td style="vertical-align:top;">:</td><td><div>&lt;class wsgiref.util.FileWrapper at 0x029BD3E8&gt;</div></td></tr><tr><td style="font-weight:bold;vertical-align:top;">wsgi_input</td><td style="vertical-align:top;">:</td><td><div>&lt;socket._fileobject object at 0x0C6512B0&gt;</div></td></tr><tr><td style="font-weight:bold;vertical-align:top;">wsgi_multiprocess</td><td style="vertical-align:top;">:</td><td><div>False</div></td></tr><tr><td style="font-weight:bold;vertical-align:top;">wsgi_multithread</td><td style="vertical-align:top;">:</td><td><div>True</div></td></tr><tr><td style="font-weight:bold;vertical-align:top;">wsgi_run_once</td><td style="vertical-align:top;">:</td><td><div>False</div></td></tr><tr><td style="font-weight:bold;vertical-align:top;">wsgi_url_scheme</td><td style="vertical-align:top;">:</td><td><div>http</div></td></tr><tr><td style="font-weight:bold;vertical-align:top;">wsgi_version</td><td style="vertical-align:top;">:</td><td><div><table><tr><td><div>1</div></td></tr><tr><td><div>0</div></td></tr></table></div></td></tr></table></div></td></tr><tr><td style="font-weight:bold;vertical-align:top;">extension</td><td style="vertical-align:top;">:</td><td><div>html</div></td></tr><tr><td style="font-weight:bold;vertical-align:top;">folder</td><td style="vertical-align:top;">:</td><td><div>D:\\project\\web\\web2py\\applications\\tatserver\\</div></td></tr><tr><td style="font-weight:bold;vertical-align:top;">function</td><td style="vertical-align:top;">:</td><td><div>show_testplan_report</div></td></tr><tr><td style="font-weight:bold;vertical-align:top;">global_settings</td><td style="vertical-align:top;">:</td><td><div><table><tr><td style="font-weight:bold;vertical-align:top;">app_folders</td><td style="vertical-align:top;">:</td><td><div>set([&#x27;D:\\\\project\\\\web\\\\web2py\\\\applications\\\\welcome\\\\&#x27;, &#x27;D:\\\\project\\\\web\\\\web2py\\\\applications\\\\TATServer\\\\&#x27;, &#x27;D:\\\\project\\\\web\\\\web2py\\\\applications\\\\tatserver\\\\&#x27;, &#x27;D:\\\\project\\\\web\\\\web2py\\\\applications\\\\admin\\\\&#x27;, &#x27;D:\\\\project\\\\web\\\\web2py\\\\applications\\\\TATSERVER\\\\&#x27;])</div></td></tr><tr><td style="font-weight:bold;vertical-align:top;">applications_parent</td><td style="vertical-align:top;">:</td><td><div>D:\\project\\web\\web2py</div></td></tr><tr><td style="font-weight:bold;vertical-align:top;">cmd_args</td><td style="vertical-align:top;">:</td><td><div><table></table></div></td></tr><tr><td style="font-weight:bold;vertical-align:top;">cmd_options</td><td style="vertical-align:top;">:</td><td><div>&lt;Values at 0x2a16cb0: {&#x27;verbose&#x27;: False, &#x27;ip&#x27;: &#x27;127.0.0.1&#x27;, &#x27;debuglevel&#x27;: 30, &#x27;with_scheduler&#x27;: False, &#x27;ips&#x27;: [&#x27;fe80::c552:3240:c7e2:7bbe%13&#x27;, &#x27;172.16.44.222&#x27;], &#x27;shutdown_timeout&#x27;: 5, &#x27;taskbar&#x27;: False, &#x27;with_coverage&#x27;: False, &#x27;scheduler_groups&#x27;: None, &#x27;port&#x27;: 8000, &#x27;maxthreads&#x27;: None, &#x27;softcron&#x27;: False, &#x27;server_name&#x27;: &#x27;50419-0&#x27;, &#x27;bpython&#x27;: False, &#x27;nogui&#x27;: False, &#x27;pid_filename&#x27;: &#x27;httpserver.pid&#x27;, &#x27;extcron&#x27;: False, &#x27;runcron&#x27;: False, &#x27;run_system_tests&#x27;: False, &#x27;test&#x27;: None, &#x27;folder&#x27;: &#x27;D:\\\\project\\\\web\\\\web2py&#x27;, &#x27;config&#x27;: &#x27;&#x27;, &#x27;minthreads&#x27;: None, &#x27;shell&#x27;: None, &#x27;run&#x27;: &#x27;&#x27;, &#x27;log_filename&#x27;: &#x27;httpserver.log&#x27;, &#x27;profiler_dir&#x27;: None, &#x27;args&#x27;: [&#x27;&#x27;], &#x27;socket_timeout&#x27;: 5, &#x27;ssl_ca_certificate&#x27;: None, &#x27;scheduler&#x27;: None, &#x27;interfaces&#x27;: None, &#x27;ssl_private_key&#x27;: &#x27;&#x27;, &#x27;gae&#x27;: None, &#x27;password&#x27;: &#x27;&lt;ask&gt;&#x27;, &#x27;request_queue_size&#x27;: 5, &#x27;ssl_certificate&#x27;: &#x27;&#x27;, &#x27;cronjob&#x27;: False, &#x27;numthreads&#x27;: None, &#x27;quiet&#x27;: False, &#x27;import_models&#x27;: False, &#x27;timeout&#x27;: 10, &#x27;plain&#x27;: False, &#x27;nobanner&#x27;: False}&gt;</div></td></tr><tr><td style="font-weight:bold;vertical-align:top;">db_sessions</td><td style="vertical-align:top;">:</td><td><div>set([])</div></td></tr><tr><td style="font-weight:bold;vertical-align:top;">debugging</td><td style="vertical-align:top;">:</td><td><div>False</div></td></tr><tr><td style="font-weight:bold;vertical-align:top;">gluon_parent</td><td style="vertical-align:top;">:</td><td><div>D:\\project\\web\\web2py</div></td></tr><tr><td style="font-weight:bold;vertical-align:top;">is_jython</td><td style="vertical-align:top;">:</td><td><div>False</div></td></tr><tr><td style="font-weight:bold;vertical-align:top;">is_pypy</td><td style="vertical-align:top;">:</td><td><div>False</div></td></tr><tr><td style="font-weight:bold;vertical-align:top;">is_source</td><td style="vertical-align:top;">:</td><td><div>True</div></td></tr><tr><td style="font-weight:bold;vertical-align:top;">local_hosts</td><td style="vertical-align:top;">:</td><td><div><table><tr><td><div>50419-0.sagemwireless</div></td></tr><tr><td><div>::ffff:127.0.0.1</div></td></tr><tr><td><div>::1</div></td></tr><tr><td><div>50419-0</div></td></tr><tr><td><div>fe80::c552:3240:c7e2:7bbe%13</div></td></tr><tr><td><div>172.16.44.222</div></td></tr><tr><td><div>127.0.0.1</div></td></tr></table></div></td></tr><tr><td style="font-weight:bold;vertical-align:top;">web2py_version</td><td style="vertical-align:top;">:</td><td><div>2.9.11-stable+timestamp.2014.09.15.23.35.11</div></td></tr></table></div></td></tr><tr><td style="font-weight:bold;vertical-align:top;">is_https</td><td style="vertical-align:top;">:</td><td><div>False</div></td></tr><tr><td style="font-weight:bold;vertical-align:top;">is_local</td><td style="vertical-align:top;">:</td><td><div>True</div></td></tr><tr><td style="font-weight:bold;vertical-align:top;">is_restful</td><td style="vertical-align:top;">:</td><td><div>False</div></td></tr><tr><td style="font-weight:bold;vertical-align:top;">is_sheduler</td><td style="vertical-align:top;">:</td><td><div>None</div></td></tr><tr><td style="font-weight:bold;vertical-align:top;">is_shell</td><td style="vertical-align:top;">:</td><td><div>None</div></td></tr><tr><td style="font-weight:bold;vertical-align:top;">now</td><td style="vertical-align:top;">:</td><td><div>datetime.datetime(2014, 10, 23, 16, 7, 6, 209000)</div></td></tr><tr><td style="font-weight:bold;vertical-align:top;">raw_args</td><td style="vertical-align:top;">:</td><td><div>10</div></td></tr><tr><td style="font-weight:bold;vertical-align:top;">raw_extension</td><td style="vertical-align:top;">:</td><td><div>None</div></td></tr><tr><td style="font-weight:bold;vertical-align:top;">url</td><td style="vertical-align:top;">:</td><td><div>/tatserver/default/show_testplan_report/10</div></td></tr><tr><td style="font-weight:bold;vertical-align:top;">utcnow</td><td style="vertical-align:top;">:</td><td><div>datetime.datetime(2014, 10, 23, 8, 7, 6, 209000)</div></td></tr><tr><td style="font-weight:bold;vertical-align:top;">uuid</td><td style="vertical-align:top;">:</td><td><div>tatserver/127.0.0.1.2014-10-23.16-07-06.42dabb09-017f-4fe9-8152-daddb812e78a</div></td></tr><tr><td style="font-weight:bold;vertical-align:top;">wsgi</td><td style="vertical-align:top;">:</td><td><div>&lt;gluon.main.LazyWSGI object at 0x0D385DF0&gt;</div></td></tr></table></div>'
tRp63
sS'frames'
p64
(lp65
(dp66
S'file'
p67
S'D:\\project\\web\\web2py\\gluon\\restricted.py'
p68
sS'dump'
p69
(dp70
S'environment'
p71
S"{'A': <class 'gluon.html.A'>, 'ANY_OF': <class 'gluon.validators.ANY_OF'>, 'ASSIGNJS': <function ASSIGNJS>, 'Auth': <class 'gluon.tools.Auth'>, 'B': <class 'gluon.html.B'>, 'BEAUTIFY': <class 'gluon.html.BEAUTIFY'>, 'BODY': <class 'gluon.html.BODY'>, 'BR': <class 'gluon.html.BR'>, 'BUTTON': <class 'gluon.html.BUTTON'>, 'CAT': <class 'gluon.html.CAT'>, ...}"
p72
sS'ccode'
p73
S'<code object <module> at 0D76B260, file "D:\\proj...tions\\tatserver\\controllers/default.py", line 12>'
p74
ssS'lnum'
p75
I224
sS'lines'
p76
(dp77
I224
S'        exec ccode in environment'
p78
sI225
S'    except HTTP:'
p79
sI226
S'        raise'
p80
sI227
S'    except RestrictedError:'
p81
sI228
S'        # do not encapsulate (obfuscate) the original RestrictedError'
p82
sI219
S'    try:'
p83
sI220
S'        if isinstance(code, types.CodeType):'
p84
sI221
S'            ccode = code'
p85
sI222
S'        else:'
p86
sI223
S'            ccode = compile2(code, layer)'
p87
ssS'call'
p88
S"(code='# -*- coding: utf-8 -*-\\n# this file is released ...nse._vars=response._caller(show_testplan_report)\\n', environment={'A': <class 'gluon.html.A'>, 'ANY_OF': <class 'gluon.validators.ANY_OF'>, 'ASSIGNJS': <function ASSIGNJS>, 'Auth': <class 'gluon.tools.Auth'>, 'B': <class 'gluon.html.B'>, 'BEAUTIFY': <class 'gluon.html.BEAUTIFY'>, 'BODY': <class 'gluon.html.BODY'>, 'BR': <class 'gluon.html.BR'>, 'BUTTON': <class 'gluon.html.BUTTON'>, 'CAT': <class 'gluon.html.CAT'>, ...}, layer=r'D:\\project\\web\\web2py\\applications\\tatserver\\controllers/default.py')"
p89
sS'func'
p90
S'restricted'
p91
sa(dp92
g67
S'D:\\project\\web\\web2py\\applications\\tatserver\\controllers\\default.py'
p93
sg69
(dp94
sg75
I254
sg76
(dp95
I243
S'def api():'
p96
sI244
S'    """'
p97
sI245
S'    this is example of API with access control'
p98
sI246
S'    WEB2PY provides Hypermedia API (Collection+JSON) Experimental'
p99
sI247
S'    """'
p100
sI248
S'    from gluon.contrib.hypermedia import Collection'
p101
sI249
S'    rules = {'
p102
sI250
S"        '<tablename>': {'GET':{},'POST':{},'PUT':{},'DELETE':{}},"
p103
sI251
S'        }'
p104
sI252
S'    return Collection(db).process(request,response,rules)'
p105
ssg88
S'()'
p106
sg90
S'<module>'
p107
sa(dp108
g67
S'D:\\project\\web\\web2py\\gluon\\globals.py'
p109
sg69
(dp110
S'self'
p111
S'undefined'
p112
sS'f'
S'<function show_testplan_report>'
p113
ssg75
I392
sg76
(dp114
I387
S"        self.flash = ''            # used by the default view layout"
p115
sI388
S'        self.meta = Storage()      # used by web2py_ajax.html'
p116
sI389
S'        self.menu = []             # used by the default view layout'
p117
sI390
S'        self.files = []            # used by web2py_ajax.html'
p118
sI391
S'        self._vars = None'
p119
sI392
S'        self._caller = lambda f: f()'
p120
sI393
S'        self._view_environment = None'
p121
sI394
S'        self._custom_commit = None'
p122
sI395
S'        self._custom_rollback = None'
p123
sI396
S"        self.generic_patterns = ['*']"
p124
ssg88
S'(f=<function show_testplan_report>)'
p125
sg90
S'<lambda>'
p126
sa(dp127
g67
S'D:\\project\\web\\web2py\\applications\\tatserver\\controllers\\default.py'
p128
sg69
(dp129
sg75
I167
sg76
(dp130
I162
S'        url = devices.host_name.url'
p131
sI163
S'        for device,test_data in db_rpc.show_all_report(url).items():'
p132
sI164
S'            list_device.append(device)'
p133
sI165
S'            if (device == devices.name):'
p134
sI166
S'                report[device] = xml2dict(test_data)'
p135
sI167
S'                data = TestData(test_data)'
p136
sI168
S''
sI169
S"            # fullTestData='/data/TAT/ClientName/' + client[0] +'/'+planname+'/TestData.xml'"
p137
sI170
S'            # anTestData=TestData.TestData(fullTestData)'
p138
sI171
S'            # testdata=anTestData.main()'
p139
ssg88
S'()'
p140
sg90
S'show_testplan_report'
p141
sa(dp142
g67
S'D:\\project\\web\\web2py\\applications\\TATServer\\modules\\TestData.py'
p143
sg69
(dp144
S'minidom.parseString'
p145
S'<function parseString>'
p146
sS'testdata'
p147
S'u\'\\ufeff<?xml version="1.0" encoding="utf-8"?>\\n...    </DATA>\\n    </Case>\\n  </CASES>\\n</RESULTS>\''
p148
sS'self'
p149
S'<applications.TATServer.modules.TestData.TestData object>'
p150
sS'global minidom'
p151
S"<module 'xml.dom.minidom' from 'C:\\Python27\\lib\\xml\\dom\\minidom.pyc'>"
p152
sS'self.doc'
p153
g112
ssg75
I9
sg76
(dp154
I4
S'import time'
p155
sI5
S''
sI6
S'class TestData(object):'
p156
sI7
S'    def __init__(self,testdata):'
p157
sI8
S'        print testdata'
p158
sI9
S'        self.doc = minidom.parseString(testdata)'
p159
sI10
S'        self.root = self.doc.documentElement'
p160
sI11
S'        self.casename={}'
p161
sI12
S'        self.casetime={}'
p162
sI13
S'        self.avgtime={}'
p163
ssg88
S'(self=<applications.TATServer.modules.TestData.TestData object>, testdata=u\'\\ufeff<?xml version="1.0" encoding="utf-8"?>\\n...    </DATA>\\n    </Case>\\n  </CASES>\\n</RESULTS>\')'
p164
sg90
g22
sa(dp165
g67
S'C:\\Python27\\lib\\xml\\dom\\minidom.py'
p166
sg69
(dp167
S'expatbuilder.parse'
p168
S'<function parse>'
p169
sS'expatbuilder'
p170
S"<module 'xml.dom.expatbuilder' from 'C:\\Python27\\lib\\xml\\dom\\expatbuilder.pyc'>"
p171
sS'file'
p172
S'u\'\\ufeff<?xml version="1.0" encoding="utf-8"?>\\n...    </DATA>\\n    </Case>\\n  </CASES>\\n</RESULTS>\''
p173
ssg75
I1918
sg76
(dp174
I1920
S'        from xml.dom import pulldom'
p175
sI1921
S'        return _do_pulldom_parse(pulldom.parse, (file,),'
p176
sI1922
S"            {'parser': parser, 'bufsize': bufsize})"
p177
sI1913
S''
sI1914
S'def parse(file, parser=None, bufsize=None):'
p178
sI1915
S'    """Parse a file into a DOM by filename or file object."""'
p179
sI1916
S'    if parser is None and not bufsize:'
p180
sI1917
S'        from xml.dom import expatbuilder'
p181
sI1918
S'        return expatbuilder.parse(file)'
p182
sI1919
S'    else:'
p183
ssg88
S'(file=u\'\\ufeff<?xml version="1.0" encoding="utf-8"?>\\n...    </DATA>\\n    </Case>\\n  </CASES>\\n</RESULTS>\', parser=None, bufsize=None)'
p184
sg90
S'parse'
p185
sa(dp186
g67
S'C:\\Python27\\lib\\xml\\dom\\expatbuilder.py'
p187
sg69
(dp188
S'fp'
p189
g112
sS'builtinopen'
p190
S'<built-in function open>'
p191
sS'file'
p192
S'u\'\\ufeff<?xml version="1.0" encoding="utf-8"?>\\n...    </DATA>\\n    </Case>\\n  </CASES>\\n</RESULTS>\''
p193
ssg75
I922
sg76
(dp194
I917
S'        builder = ExpatBuilderNS()'
p195
sI918
S'    else:'
p196
sI919
S'        builder = ExpatBuilder()'
p197
sI920
S''
sI921
S'    if isinstance(file, StringTypes):'
p198
sI922
S"        fp = open(file, 'rb')"
p199
sI923
S'        try:'
p200
sI924
S'            result = builder.parseFile(fp)'
p201
sI925
S'        finally:'
p202
sI926
S'            fp.close()'
p203
ssg88
S'(file=u\'\\ufeff<?xml version="1.0" encoding="utf-8"?>\\n...    </DATA>\\n    </Case>\\n  </CASES>\\n</RESULTS>\', namespaces=True)'
p204
sg90
g185
sasS'pyver'
p205
S'Python 2.7.8: C:\\Python27\\python.exe (prefix: C:\\Python27)'
p206
sS'session'
p207
g62
(S's\xb9\x01\x00\x00<div><table><tr><td style="font-weight:bold;vertical-align:top;">flash</td><td style="vertical-align:top;">:</td><td><div>None</div></td></tr><tr><td style="font-weight:bold;vertical-align:top;">last_orderby</td><td style="vertical-align:top;">:</td><td><div>None</div></td></tr><tr><td style="font-weight:bold;vertical-align:top;">last_query</td><td style="vertical-align:top;">:</td><td><div>db.device.id&gt;0</div></td></tr></table></div>'
tRp208
sS'etype'
p209
S"<type 'exceptions.IOError'>"
p210
sS'date'
p211
S'Thu Oct 23 16:07:06 2014'
p212
sS'response'
p213
g62
(S's\xe62\x00\x00<div><table><tr><td style="font-weight:bold;vertical-align:top;">body</td><td style="vertical-align:top;">:</td><td><div>&lt;cStringIO.StringO object at 0x0D8088A0&gt;</div></td></tr><tr><td style="font-weight:bold;vertical-align:top;">cookies</td><td style="vertical-align:top;">:</td><td><div><table><tr><td style="font-weight:bold;vertical-align:top;">session_id_tatserver</td><td style="vertical-align:top;">:</td><td><div>127.0.0.1-87769440-4328-4f77-8e91-f5bac00df812<table><tr><td style="font-weight:bold;vertical-align:top;">comment</td><td style="vertical-align:top;">:</td><td><div></div></td></tr><tr><td style="font-weight:bold;vertical-align:top;">domain</td><td style="vertical-align:top;">:</td><td><div></div></td></tr><tr><td style="font-weight:bold;vertical-align:top;">expires</td><td style="vertical-align:top;">:</td><td><div></div></td></tr><tr><td style="font-weight:bold;vertical-align:top;">httponly</td><td style="vertical-align:top;">:</td><td><div></div></td></tr><tr><td style="font-weight:bold;vertical-align:top;">max-age</td><td style="vertical-align:top;">:</td><td><div></div></td></tr><tr><td style="font-weight:bold;vertical-align:top;">path</td><td style="vertical-align:top;">:</td><td><div>/</div></td></tr><tr><td style="font-weight:bold;vertical-align:top;">secure</td><td style="vertical-align:top;">:</td><td><div></div></td></tr><tr><td style="font-weight:bold;vertical-align:top;">version</td><td style="vertical-align:top;">:</td><td><div></div></td></tr></table></div></td></tr></table></div></td></tr><tr><td style="font-weight:bold;vertical-align:top;">delimiters</td><td style="vertical-align:top;">:</td><td><div><table><tr><td><div>{{</div></td></tr><tr><td><div>}}</div></td></tr></table></div></td></tr><tr><td style="font-weight:bold;vertical-align:top;">files</td><td style="vertical-align:top;">:</td><td><div><table></table></div></td></tr><tr><td style="font-weight:bold;vertical-align:top;">flash</td><td style="vertical-align:top;">:</td><td><div></div></td></tr><tr><td style="font-weight:bold;vertical-align:top;">form_label_separator</td><td style="vertical-align:top;">:</td><td><div>: </div></td></tr><tr><td style="font-weight:bold;vertical-align:top;">formstyle</td><td style="vertical-align:top;">:</td><td><div>table3cols</div></td></tr><tr><td style="font-weight:bold;vertical-align:top;">generic_patterns</td><td style="vertical-align:top;">:</td><td><div><table><tr><td><div>*</div></td></tr></table></div></td></tr><tr><td style="font-weight:bold;vertical-align:top;">google_analytics_id</td><td style="vertical-align:top;">:</td><td><div>None</div></td></tr><tr><td style="font-weight:bold;vertical-align:top;">headers</td><td style="vertical-align:top;">:</td><td><div><table><tr><td style="font-weight:bold;vertical-align:top;">X-Powered-By</td><td style="vertical-align:top;">:</td><td><div>web2py</div></td></tr></table></div></td></tr><tr><td style="font-weight:bold;vertical-align:top;">logo</td><td style="vertical-align:top;">:</td><td><div><a class="brand" href="http://www.web2py.com/"><b>web<span>2</span>py</b>&trade;&nbsp;</a></div></td></tr><tr><td style="font-weight:bold;vertical-align:top;">menu</td><td style="vertical-align:top;">:</td><td><div><table><tr><td><div><table><tr><td><div>Home</div></td></tr><tr><td><div>False</div></td></tr><tr><td><div>/tatserver/default/index</div></td></tr><tr><td><div><table></table></div></td></tr></table></div></td></tr><tr><td><div><table><tr><td><div><span class="highlighted">web2py</span></div></td></tr><tr><td><div>False</div></td></tr><tr><td><div>http://web2py.com</div></td></tr><tr><td><div><table><tr><td><div><table><tr><td><div>My Sites</div></td></tr><tr><td><div>False</div></td></tr><tr><td><div>/admin/default/site</div></td></tr></table></div></td></tr><tr><td><div><table><tr><td><div>\xe8\xaf\xa5\xe5\xba\x94\xe7\x94\xa8</div></td></tr><tr><td><div>False</div></td></tr><tr><td><div>/admin/default/design/tatserver</div></td></tr><tr><td><div>[(&lt;lazyT &#x27;Controller&#x27;&gt;, False, &#x27;/admin/default/edit/tatserver/controllers/default.py&#x27;), (&lt;lazyT &#x27;View&#x27;&gt;, False, &#x27;/admin/default/edit/tatserver/views/default/show_testplan_report.html&#x27;), (&lt;lazyT &#x27;Layout&#x27;&gt;, False, &#x27;/admin/default/edit/tatserver/views/layout.html&#x27;), (&lt;lazyT &#x27;Stylesheet&#x27;&gt;, False, &#x27;/admin/default/edit/tatserver/static/css/web2py.css&#x27;), (&lt;lazyT &#x27;DB Model&#x27;&gt;, False, &#x27;/admin/default/edit/tatserver/models/db.py&#x27;), (&lt;lazyT &#x27;Menu Model&#x27;&gt;, False, &#x27;/admin/default/edit/tatserver/models/menu.py&#x27;), (&lt;lazyT &#x27;Database&#x27;&gt;, False, &#x27;/tatserver/appadmin/index&#x27;), (&lt;lazyT &#x27;Errors&#x27;&gt;, False, &#x27;/admin/default/errors/tatserver&#x27;), (&lt;lazyT &#x27;About&#x27;&gt;, False, &#x27;/admin/default/about/tatserver&#x27;)]</div></td></tr></table></div></td></tr><tr><td><div><table><tr><td><div>web2py.com</div></td></tr><tr><td><div>False</div></td></tr><tr><td><div>http://www.web2py.com</div></td></tr><tr><td><div>[(&lt;lazyT &#x27;Download&#x27;&gt;, False, &#x27;http://www.web2py.com/examples/default/download&#x27;), (&lt;lazyT &#x27;Support&#x27;&gt;, False, &#x27;http://www.web2py.com/examples/default/support&#x27;), (&lt;lazyT &#x27;Demo&#x27;&gt;, False, &#x27;http://web2py.com/demo_admin&#x27;), (&lt;lazyT &#x27;Quick Examples&#x27;&gt;, False, &#x27;http://web2py.com/examples/default/examples&#x27;), (&lt;lazyT &#x27;FAQ&#x27;&gt;, False, &#x27;http://web2py.com/AlterEgo&#x27;), (&lt;lazyT &#x27;Videos&#x27;&gt;, False, &#x27;http://www.web2py.com/examples/default/videos/&#x27;), (&lt;lazyT &#x27;Free Applications&#x27;&gt;, False, &#x27;http://web2py.com/appliances&#x27;), (&lt;lazyT &#x27;Plugins&#x27;&gt;, False, &#x27;http://web2py.com/plugins&#x27;), (&lt;lazyT &#x27;Layouts&#x27;&gt;, False, &#x27;http://web2py.com/layouts&#x27;), (&lt;lazyT &#x27;Recipes&#x27;&gt;, False, &#x27;http://web2pyslices.com/&#x27;), (&lt;lazyT &#x27;Semantic&#x27;&gt;, False, &#x27;http://web2py.com/semantic&#x27;)]</div></td></tr></table></div></td></tr><tr><td><div><table><tr><td><div>Documentation</div></td></tr><tr><td><div>False</div></td></tr><tr><td><div>http://www.web2py.com/book</div></td></tr><tr><td><div>[(&lt;lazyT &#x27;Preface&#x27;&gt;, False, &#x27;http://www.web2py.com/book/default/chapter/00&#x27;), (&lt;lazyT &#x27;Introduction&#x27;&gt;, False, &#x27;http://www.web2py.com/book/default/chapter/01&#x27;), (&lt;lazyT &#x27;Python&#x27;&gt;, False, &#x27;http://www.web2py.com/book/default/chapter/02&#x27;), (&lt;lazyT &#x27;Overview&#x27;&gt;, False, &#x27;http://www.web2py.com/book/default/chapter/03&#x27;), (&lt;lazyT &#x27;The Core&#x27;&gt;, False, &#x27;http://www.web2py.com/book/default/chapter/04&#x27;), (&lt;lazyT &#x27;The Views&#x27;&gt;, False, &#x27;http://www.web2py.com/book/default/chapter/05&#x27;), (&lt;lazyT &#x27;Database&#x27;&gt;, False, &#x27;http://www.web2py.com/book/default/chapter/06&#x27;), (&lt;lazyT &#x27;Forms and Validators&#x27;&gt;, False, &#x27;http://www.web2py.com/book/default/chapter/07&#x27;), (&lt;lazyT &#x27;Email and SMS&#x27;&gt;, False, &#x27;http://www.web2py.com/book/default/chapter/08&#x27;), (&lt;lazyT &#x27;Access Control&#x27;&gt;, False, &#x27;http://www.web2py.com/book/default/chapter/09&#x27;), (&lt;lazyT &#x27;Services&#x27;&gt;, False, &#x27;http://www.web2py.com/book/default/chapter/10&#x27;), (&lt;lazyT &#x27;Ajax Recipes&#x27;&gt;, False, &#x27;http://www.web2py.com/book/default/chapter/11&#x27;), (&lt;lazyT &#x27;Components and Plugins&#x27;&gt;, False, &#x27;http://www.web2py.com/book/default/chapter/12&#x27;), (&lt;lazyT &#x27;Deployment Recipes&#x27;&gt;, False, &#x27;http://www.web2py.com/book/default/chapter/13&#x27;), (&lt;lazyT &#x27;Other Recipes&#x27;&gt;, False, &#x27;http://www.web2py.com/book/default/chapter/14&#x27;), (&lt;lazyT &#x27;Buy this book&#x27;&gt;, False, &#x27;http://stores.lulu.com/web2py&#x27;)]</div></td></tr></table></div></td></tr><tr><td><div><table><tr><td><div>Community</div></td></tr><tr><td><div>False</div></td></tr><tr><td><div>None</div></td></tr><tr><td><div>[(&lt;lazyT &#x27;Groups&#x27;&gt;, False, &#x27;http://www.web2py.com/examples/default/usergroups&#x27;), (&lt;lazyT &#x27;Twitter&#x27;&gt;, False, &#x27;http://twitter.com/web2py&#x27;), (&lt;lazyT &#x27;Live Chat&#x27;&gt;, False, &#x27;http://webchat.freenode.net/?channels=web2py&#x27;)]</div></td></tr></table></div></td></tr><tr><td><div><table><tr><td><div>Plugins</div></td></tr><tr><td><div>False</div></td></tr><tr><td><div>None</div></td></tr><tr><td><div>[(&#x27;plugin_wiki&#x27;, False, &#x27;http://web2py.com/examples/default/download&#x27;), (&lt;lazyT &#x27;Other Plugins&#x27;&gt;, False, &#x27;http://web2py.com/plugins&#x27;), (&lt;lazyT &#x27;Layout Plugins&#x27;&gt;, False, &#x27;http://web2py.com/layouts&#x27;)]</div></td></tr></table></div></td></tr></table></div></td></tr></table></div></td></tr></table></div></td></tr><tr><td style="font-weight:bold;vertical-align:top;">meta</td><td style="vertical-align:top;">:</td><td><div><table><tr><td style="font-weight:bold;vertical-align:top;">author</td><td style="vertical-align:top;">:</td><td><div>Your Name &lt;you@example.com&gt;</div></td></tr><tr><td style="font-weight:bold;vertical-align:top;">generator</td><td style="vertical-align:top;">:</td><td><div>Web2py Web Framework</div></td></tr><tr><td style="font-weight:bold;vertical-align:top;">keywords</td><td style="vertical-align:top;">:</td><td><div>web2py, python, framework</div></td></tr></table></div></td></tr><tr><td style="font-weight:bold;vertical-align:top;">models_to_run</td><td style="vertical-align:top;">:</td><td><div><table><tr><td><div>^\\w+\\.py$</div></td></tr><tr><td><div>^default/\\w+\\.py$</div></td></tr><tr><td><div>^default/show_testplan_report/\\w+\\.py$</div></td></tr></table></div></td></tr><tr><td style="font-weight:bold;vertical-align:top;">postprocessing</td><td style="vertical-align:top;">:</td><td><div><table></table></div></td></tr><tr><td style="font-weight:bold;vertical-align:top;">session_client</td><td style="vertical-align:top;">:</td><td><div>127.0.0.1</div></td></tr><tr><td style="font-weight:bold;vertical-align:top;">session_cookie_compression_level</td><td style="vertical-align:top;">:</td><td><div>None</div></td></tr><tr><td style="font-weight:bold;vertical-align:top;">session_cookie_expires</td><td style="vertical-align:top;">:</td><td><div>None</div></td></tr><tr><td style="font-weight:bold;vertical-align:top;">session_cookie_key</td><td style="vertical-align:top;">:</td><td><div>None</div></td></tr><tr><td style="font-weight:bold;vertical-align:top;">session_data_name</td><td style="vertical-align:top;">:</td><td><div>session_data_tatserver</div></td></tr><tr><td style="font-weight:bold;vertical-align:top;">session_file</td><td style="vertical-align:top;">:</td><td><div>&lt;open file &#x27;D:\\\\project\\\\web\\\\web2py\\\\applications\\\\tatserver\\\\sessions\\\\174\\\\185\\\\127.0.0.1-87769440-4328-4f77-8e91-f5bac00df812&#x27;, mode &#x27;rb+&#x27; at 0x0C07F4F0&gt;</div></td></tr><tr><td style="font-weight:bold;vertical-align:top;">session_filename</td><td style="vertical-align:top;">:</td><td><div>D:\\project\\web\\web2py\\applications\\tatserver\\sessions\\127.0.0.1-87769440-4328-4f77-8e91-f5bac00df812</div></td></tr><tr><td style="font-weight:bold;vertical-align:top;">session_hash</td><td style="vertical-align:top;">:</td><td><div>9dec81dd5ce340f845e01a7291872b3f</div></td></tr><tr><td style="font-weight:bold;vertical-align:top;">session_id</td><td style="vertical-align:top;">:</td><td><div>127.0.0.1-87769440-4328-4f77-8e91-f5bac00df812</div></td></tr><tr><td style="font-weight:bold;vertical-align:top;">session_id_name</td><td style="vertical-align:top;">:</td><td><div>session_id_tatserver</div></td></tr><tr><td style="font-weight:bold;vertical-align:top;">session_locked</td><td style="vertical-align:top;">:</td><td><div>True</div></td></tr><tr><td style="font-weight:bold;vertical-align:top;">session_masterapp</td><td style="vertical-align:top;">:</td><td><div>tatserver</div></td></tr><tr><td style="font-weight:bold;vertical-align:top;">session_new</td><td style="vertical-align:top;">:</td><td><div>False</div></td></tr><tr><td style="font-weight:bold;vertical-align:top;">session_storage_type</td><td style="vertical-align:top;">:</td><td><div>file</div></td></tr><tr><td style="font-weight:bold;vertical-align:top;">status</td><td style="vertical-align:top;">:</td><td><div>200</div></td></tr><tr><td style="font-weight:bold;vertical-align:top;">subtitle</td><td style="vertical-align:top;">:</td><td><div></div></td></tr><tr><td style="font-weight:bold;vertical-align:top;">title</td><td style="vertical-align:top;">:</td><td><div>Tatserver</div></td></tr><tr><td style="font-weight:bold;vertical-align:top;">view</td><td style="vertical-align:top;">:</td><td><div>default/show_testplan_report.html</div></td></tr></table></div>'
tRp214
sS'locals'
p215
(dp216
S'builder'
p217
S'<xml.dom.expatbuilder.ExpatBuilderNS instance>'
p218
sS'namespaces'
p219
S'True'
p220
sg67
S'u\'\\ufeff<?xml version="1.0" encoding="utf-8"?>\\n...    </DATA>\\n    </Case>\\n  </CASES>\\n</RESULTS>\''
p221
sssS'traceback'
p222
S'Traceback (most recent call last):\n  File "D:\\project\\web\\web2py\\gluon\\restricted.py", line 224, in restricted\n    exec ccode in environment\n  File "D:\\project\\web\\web2py\\applications\\tatserver\\controllers/default.py", line 254, in <module>\n  File "D:\\project\\web\\web2py\\gluon\\globals.py", line 392, in <lambda>\n    self._caller = lambda f: f()\n  File "D:\\project\\web\\web2py\\applications\\tatserver\\controllers/default.py", line 167, in show_testplan_report\n    data = TestData(test_data)\n  File "applications\\TATServer\\modules\\TestData.py", line 9, in __init__\n    self.doc = minidom.parseString(testdata)\n  File "C:\\Python27\\lib\\xml\\dom\\minidom.py", line 1918, in parse\n    return expatbuilder.parse(file)\n  File "C:\\Python27\\lib\\xml\\dom\\expatbuilder.py", line 922, in parse\n    fp = open(file, \'rb\')\nIOError: [Errno 2] No such file or directory: u\'\\ufeff<?xml version="1.0" encoding="utf-8"?>\\n<RESULTS>\\n  <PLANTYPE>ATT STABILITY</PLANTYPE>\\n  <DebugLOG>D:\\\\TAT\\\\Debug\\\\8bf5f7f - 20141017172120</DebugLOG>\\n  <AndroidLOG>D:\\\\TAT\\\\Logs\\\\8bf5f7f - 20141017172120</AndroidLOG>\\n  <TimeStamp>20141017172120</TimeStamp>\\n  <CASES>\\n    <Case>\\n      <NAME>alarm</NAME>\\n      <TOTALTIMES>0</TOTALTIMES>\\n      <SuccessRate>0</SuccessRate>\\n      <DATA>\\n        <LOOP>\\n          <TIME>00:00:10</TIME>\\n          <SUCCESSTIMES>0</SUCCESSTIMES>\\n        </LOOP>\\n      </DATA>\\n    </Case>\\n    <Case>\\n      <NAME>5.1.7_Multi-Media</NAME>\\n      <TOTALTIMES>0</TOTALTIMES>\\n      <SuccessRate>0</SuccessRate>\\n      <DATA>\\n        <LOOP>\\n          <TIME>00:00:10</TIME>\\n          <SUCCESSTIMES>0</SUCCESSTIMES>\\n        </LOOP>\\n      </DATA>\\n    </Case>\\n    <Case>\\n      <NAME>multiplay</NAME>\\n      <TOTALTIMES>0</TOTALTIMES>\\n      <SuccessRate>0</SuccessRate>\\n      <DATA>\\n        <LOOP>\\n          <TIME>00:00:09</TIME>\\n          <SUCCESSTIMES>0</SUCCESSTIMES>\\n        </LOOP>\\n      </DATA>\\n    </Case>\\n  </CASES>\\n</RESULTS>\'\n'
p223
s.